GAS LISTING /tmp/ccK7jNTo.s 			page 1


   1              		.file	"_new.cpp"
   2              		.option pic
   3              		.option norelax
   4              		.text
   5              	.Ltext0:
   6              		.align	2
   7              		.globl	__mem_alloc
   9              	__mem_alloc:
  10              	.LFB0:
  11              		.file 1 "src/_new.cpp"
   1:src/_new.cpp  **** #include "../lib/mem.h"
   2:src/_new.cpp  **** #include "../h/syscall_c.h"
   3:src/_new.cpp  **** #include "../h/MemoryAllocator.hpp"
   4:src/_new.cpp  **** 
   5:src/_new.cpp  **** using size_t = decltype(sizeof(0));
   6:src/_new.cpp  **** 
   7:src/_new.cpp  **** void* __mem_alloc(size_t size)
   8:src/_new.cpp  **** {
  12              		.loc 1 8 1
  13              		.cfi_startproc
  14              	.LVL0:
  15 0000 130101FF 		addi	sp,sp,-16
  16              		.cfi_def_cfa_offset 16
  17 0004 23341100 		sd	ra,8(sp)
  18 0008 23308100 		sd	s0,0(sp)
  19              		.cfi_offset 1, -8
  20              		.cfi_offset 8, -16
  21 000c 13040101 		addi	s0,sp,16
  22              		.cfi_def_cfa 8, 0
   9:src/_new.cpp  ****     return MemoryAllocator::alloc(size);
  23              		.loc 1 9 5
  24              		.loc 1 9 34 is_stmt 0
  25 0010 97000000 		call	_ZN15MemoryAllocator5allocEm@plt
  25      E7800000 
  26              	.LVL1:
  10:src/_new.cpp  **** }
  27              		.loc 1 10 1
  28 0018 83308100 		ld	ra,8(sp)
  29              		.cfi_restore 1
  30 001c 03340100 		ld	s0,0(sp)
  31              		.cfi_restore 8
  32              		.cfi_def_cfa 2, 16
  33 0020 13010101 		addi	sp,sp,16
  34              		.cfi_def_cfa_offset 0
  35 0024 67800000 		jr	ra
  36              		.cfi_endproc
  37              	.LFE0:
  39              		.align	2
  40              		.globl	__mem_free
  42              	__mem_free:
  43              	.LFB1:
  11:src/_new.cpp  **** 
  12:src/_new.cpp  **** int __mem_free(void *toFree)
  13:src/_new.cpp  **** {
  44              		.loc 1 13 1 is_stmt 1
  45              		.cfi_startproc
  46              	.LVL2:
GAS LISTING /tmp/ccK7jNTo.s 			page 2


  47 0028 130101FF 		addi	sp,sp,-16
  48              		.cfi_def_cfa_offset 16
  49 002c 23341100 		sd	ra,8(sp)
  50 0030 23308100 		sd	s0,0(sp)
  51              		.cfi_offset 1, -8
  52              		.cfi_offset 8, -16
  53 0034 13040101 		addi	s0,sp,16
  54              		.cfi_def_cfa 8, 0
  14:src/_new.cpp  ****     return MemoryAllocator::freee(toFree);
  55              		.loc 1 14 5
  56              		.loc 1 14 34 is_stmt 0
  57 0038 97000000 		call	_ZN15MemoryAllocator5freeeEPv@plt
  57      E7800000 
  58              	.LVL3:
  15:src/_new.cpp  **** }
  59              		.loc 1 15 1
  60 0040 83308100 		ld	ra,8(sp)
  61              		.cfi_restore 1
  62 0044 03340100 		ld	s0,0(sp)
  63              		.cfi_restore 8
  64              		.cfi_def_cfa 2, 16
  65 0048 13010101 		addi	sp,sp,16
  66              		.cfi_def_cfa_offset 0
  67 004c 67800000 		jr	ra
  68              		.cfi_endproc
  69              	.LFE1:
  71              		.align	2
  72              		.globl	_Znwm
  74              	_Znwm:
  75              	.LFB2:
  16:src/_new.cpp  **** 
  17:src/_new.cpp  **** void *operator new(size_t n)
  18:src/_new.cpp  **** {
  76              		.loc 1 18 1 is_stmt 1
  77              		.cfi_startproc
  78              	.LVL4:
  79 0050 130101FF 		addi	sp,sp,-16
  80              		.cfi_def_cfa_offset 16
  81 0054 23341100 		sd	ra,8(sp)
  82 0058 23308100 		sd	s0,0(sp)
  83              		.cfi_offset 1, -8
  84              		.cfi_offset 8, -16
  85 005c 13040101 		addi	s0,sp,16
  86              		.cfi_def_cfa 8, 0
  19:src/_new.cpp  ****     return mem_alloc(n);
  87              		.loc 1 19 5
  88              		.loc 1 19 21 is_stmt 0
  89 0060 97000000 		call	_Z9mem_allocm@plt
  89      E7800000 
  90              	.LVL5:
  20:src/_new.cpp  **** }
  91              		.loc 1 20 1
  92 0068 83308100 		ld	ra,8(sp)
  93              		.cfi_restore 1
  94 006c 03340100 		ld	s0,0(sp)
  95              		.cfi_restore 8
  96              		.cfi_def_cfa 2, 16
GAS LISTING /tmp/ccK7jNTo.s 			page 3


  97 0070 13010101 		addi	sp,sp,16
  98              		.cfi_def_cfa_offset 0
  99 0074 67800000 		jr	ra
 100              		.cfi_endproc
 101              	.LFE2:
 103              		.align	2
 104              		.globl	_Znam
 106              	_Znam:
 107              	.LFB3:
  21:src/_new.cpp  **** 
  22:src/_new.cpp  **** void *operator new[](size_t n)
  23:src/_new.cpp  **** {
 108              		.loc 1 23 1 is_stmt 1
 109              		.cfi_startproc
 110              	.LVL6:
 111 0078 130101FF 		addi	sp,sp,-16
 112              		.cfi_def_cfa_offset 16
 113 007c 23341100 		sd	ra,8(sp)
 114 0080 23308100 		sd	s0,0(sp)
 115              		.cfi_offset 1, -8
 116              		.cfi_offset 8, -16
 117 0084 13040101 		addi	s0,sp,16
 118              		.cfi_def_cfa 8, 0
  24:src/_new.cpp  ****     return mem_alloc(n);
 119              		.loc 1 24 5
 120              		.loc 1 24 21 is_stmt 0
 121 0088 97000000 		call	_Z9mem_allocm@plt
 121      E7800000 
 122              	.LVL7:
  25:src/_new.cpp  **** }
 123              		.loc 1 25 1
 124 0090 83308100 		ld	ra,8(sp)
 125              		.cfi_restore 1
 126 0094 03340100 		ld	s0,0(sp)
 127              		.cfi_restore 8
 128              		.cfi_def_cfa 2, 16
 129 0098 13010101 		addi	sp,sp,16
 130              		.cfi_def_cfa_offset 0
 131 009c 67800000 		jr	ra
 132              		.cfi_endproc
 133              	.LFE3:
 135              		.align	2
 136              		.globl	_ZdlPv
 138              	_ZdlPv:
 139              	.LFB4:
  26:src/_new.cpp  **** 
  27:src/_new.cpp  **** void operator delete(void *p) noexcept
  28:src/_new.cpp  **** {
 140              		.loc 1 28 1 is_stmt 1
 141              		.cfi_startproc
 142              		.cfi_personality 0x9b,DW.ref.__gxx_personality_v0
 143              		.cfi_lsda 0x1b,.LLSDA4
 144              	.LVL8:
 145 00a0 130101FF 		addi	sp,sp,-16
 146              		.cfi_def_cfa_offset 16
 147 00a4 23341100 		sd	ra,8(sp)
 148 00a8 23308100 		sd	s0,0(sp)
GAS LISTING /tmp/ccK7jNTo.s 			page 4


 149              		.cfi_offset 1, -8
 150              		.cfi_offset 8, -16
 151 00ac 13040101 		addi	s0,sp,16
 152              		.cfi_def_cfa 8, 0
  29:src/_new.cpp  ****     mem_free(p);
 153              		.loc 1 29 5
 154              		.loc 1 29 13 is_stmt 0
 155 00b0 97000000 		call	_Z8mem_freePv@plt
 155      E7800000 
 156              	.LVL9:
  30:src/_new.cpp  **** }
 157              		.loc 1 30 1
 158 00b8 83308100 		ld	ra,8(sp)
 159              		.cfi_restore 1
 160 00bc 03340100 		ld	s0,0(sp)
 161              		.cfi_restore 8
 162              		.cfi_def_cfa 2, 16
 163 00c0 13010101 		addi	sp,sp,16
 164              		.cfi_def_cfa_offset 0
 165 00c4 67800000 		jr	ra
 166              		.cfi_endproc
 167              	.LFE4:
 168              		.globl	__gxx_personality_v0
 169              		.section	.gcc_except_table,"a",@progbits
 170              	.LLSDA4:
 171 0000 FF       		.byte	0xff
 172 0001 FF       		.byte	0xff
 173 0002 03       		.byte	0x3
 174 0003 00       		.byte	0
 175              		.text
 177              		.align	2
 178              		.globl	_ZdaPv
 180              	_ZdaPv:
 181              	.LFB5:
  31:src/_new.cpp  **** 
  32:src/_new.cpp  **** void operator delete[](void *p) noexcept
  33:src/_new.cpp  **** {
 182              		.loc 1 33 1 is_stmt 1
 183              		.cfi_startproc
 184              		.cfi_personality 0x9b,DW.ref.__gxx_personality_v0
 185              		.cfi_lsda 0x1b,.LLSDA5
 186              	.LVL10:
 187 00c8 130101FF 		addi	sp,sp,-16
 188              		.cfi_def_cfa_offset 16
 189 00cc 23341100 		sd	ra,8(sp)
 190 00d0 23308100 		sd	s0,0(sp)
 191              		.cfi_offset 1, -8
 192              		.cfi_offset 8, -16
 193 00d4 13040101 		addi	s0,sp,16
 194              		.cfi_def_cfa 8, 0
  34:src/_new.cpp  ****     mem_free(p);
 195              		.loc 1 34 5
 196              		.loc 1 34 13 is_stmt 0
 197 00d8 97000000 		call	_Z8mem_freePv@plt
 197      E7800000 
 198              	.LVL11:
  35:src/_new.cpp  **** }
GAS LISTING /tmp/ccK7jNTo.s 			page 5


 199              		.loc 1 35 1
 200 00e0 83308100 		ld	ra,8(sp)
 201              		.cfi_restore 1
 202 00e4 03340100 		ld	s0,0(sp)
 203              		.cfi_restore 8
 204              		.cfi_def_cfa 2, 16
 205 00e8 13010101 		addi	sp,sp,16
 206              		.cfi_def_cfa_offset 0
 207 00ec 67800000 		jr	ra
 208              		.cfi_endproc
 209              	.LFE5:
 210              		.section	.gcc_except_table
 211              	.LLSDA5:
 212 0004 FF       		.byte	0xff
 213 0005 FF       		.byte	0xff
 214 0006 03       		.byte	0x3
 215 0007 00       		.byte	0
 216              		.text
 218              	.Letext0:
 219              		.file 2 "src/../lib/hw.h"
 220              		.file 3 "src/../h/../h/MemoryDesc.hpp"
 221              		.file 4 "src/../h/MemoryAllocator.hpp"
 222              		.file 5 "src/../h/syscall_c.h"
 1316              		.align	3
 1319              	DW.ref.__gxx_personality_v0:
 1320 0000 00000000 		.dword	__gxx_personality_v0
 1320      00000000 
 1321              		.ident	"GCC: (Ubuntu 9.4.0-1ubuntu1~20.04) 9.4.0"
 1322              		.section	.note.GNU-stack,"",@progbits
GAS LISTING /tmp/ccK7jNTo.s 			page 6

