GAS LISTING /tmp/cclLPOZ2.s 			page 1


   1              		.file	"_sem.cpp"
   2              		.option pic
   3              		.option norelax
   4              		.text
   5              	.Ltext0:
   6              		.align	2
   7              		.globl	_ZN4_semC2EPPS_j
   9              	_ZN4_semC2EPPS_j:
  10              	.LFB22:
  11              		.file 1 "src/_sem.cpp"
   1:src/_sem.cpp  **** #include "../h/_sem.hpp"
   2:src/_sem.cpp  **** 
   3:src/_sem.cpp  **** 
   4:src/_sem.cpp  **** _sem::_sem(sem_t *handle, unsigned int init) {
  12              		.loc 1 4 1
  13              		.cfi_startproc
  14              	.LVL0:
  15 0000 130101FF 		addi	sp,sp,-16
  16              		.cfi_def_cfa_offset 16
  17 0004 23348100 		sd	s0,8(sp)
  18              		.cfi_offset 8, -8
  19 0008 13040101 		addi	s0,sp,16
  20              		.cfi_def_cfa 8, 0
  21              	.LVL1:
  22              	.LBB33:
  23              	.LBB34:
  24              	.LBB35:
  25              		.file 2 "src/../h/../h/list.hpp"
   1:src/../h/../h/list.hpp **** #ifndef OS1_VEZBE07_RISCV_CONTEXT_SWITCH_2_INTERRUPT_LIST_HPP
   2:src/../h/../h/list.hpp **** #define OS1_VEZBE07_RISCV_CONTEXT_SWITCH_2_INTERRUPT_LIST_HPP
   3:src/../h/../h/list.hpp **** 
   4:src/../h/../h/list.hpp **** #include "../h/MemoryAllocator.hpp"
   5:src/../h/../h/list.hpp **** 
   6:src/../h/../h/list.hpp **** template<typename T>
   7:src/../h/../h/list.hpp **** class List
   8:src/../h/../h/list.hpp **** {
   9:src/../h/../h/list.hpp **** 
  10:src/../h/../h/list.hpp **** public:
  11:src/../h/../h/list.hpp **** 
  12:src/../h/../h/list.hpp ****     struct Elem
  13:src/../h/../h/list.hpp ****     {
  14:src/../h/../h/list.hpp ****         T *data;
  15:src/../h/../h/list.hpp ****         Elem *next;
  16:src/../h/../h/list.hpp **** 
  17:src/../h/../h/list.hpp ****         Elem(T *data, Elem *next) : data(data), next(next) {}
  18:src/../h/../h/list.hpp **** 
  19:src/../h/../h/list.hpp ****         void *operator new(size_t size) { return MemoryAllocator::alloc(size); }
  20:src/../h/../h/list.hpp ****         void operator delete(void *toFree) { MemoryAllocator::freee(toFree); }
  21:src/../h/../h/list.hpp ****     };
  22:src/../h/../h/list.hpp **** 
  23:src/../h/../h/list.hpp ****     Elem *head, *tail;
  24:src/../h/../h/list.hpp ****     List() : head(0), tail(0) {}
  26              		.loc 2 24 29 is_stmt 0
  27 000c 23300500 		sd	zero,0(a0)
  28 0010 23340500 		sd	zero,8(a0)
  29              	.LVL2:
  30              	.LBE35:
GAS LISTING /tmp/cclLPOZ2.s 			page 2


  31              	.LBE34:
   5:src/_sem.cpp  ****     *handle = this;
  32              		.loc 1 5 5 is_stmt 1
  33              		.loc 1 5 13 is_stmt 0
  34 0014 23B0A500 		sd	a0,0(a1)
   6:src/_sem.cpp  ****     val = init;
  35              		.loc 1 6 5 is_stmt 1
  36              		.loc 1 6 9 is_stmt 0
  37 0018 2328C500 		sw	a2,16(a0)
   7:src/_sem.cpp  ****     closed = false;
  38              		.loc 1 7 5 is_stmt 1
  39              		.loc 1 7 12 is_stmt 0
  40 001c 230A0500 		sb	zero,20(a0)
  41              	.LBE33:
   8:src/_sem.cpp  **** }
  42              		.loc 1 8 1
  43 0020 03348100 		ld	s0,8(sp)
  44              		.cfi_restore 8
  45              		.cfi_def_cfa 2, 16
  46 0024 13010101 		addi	sp,sp,16
  47              		.cfi_def_cfa_offset 0
  48 0028 67800000 		jr	ra
  49              		.cfi_endproc
  50              	.LFE22:
  52              		.globl	_ZN4_semC1EPPS_j
  53              		.set	_ZN4_semC1EPPS_j,_ZN4_semC2EPPS_j
  54              		.align	2
  55              		.globl	_ZN4_sem4waitEv
  57              	_ZN4_sem4waitEv:
  58              	.LFB24:
   9:src/_sem.cpp  **** 
  10:src/_sem.cpp  **** int _sem::wait() {
  59              		.loc 1 10 18 is_stmt 1
  60              		.cfi_startproc
  61              	.LVL3:
  11:src/_sem.cpp  ****     if (closed)
  62              		.loc 1 11 5
  63              		.loc 1 11 9 is_stmt 0
  64 002c 83474501 		lbu	a5,20(a0)
  65              		.loc 1 11 5
  66 0030 639E0708 		bnez	a5,.L7
  10:src/_sem.cpp  ****     if (closed)
  67              		.loc 1 10 18
  68 0034 130101FE 		addi	sp,sp,-32
  69              		.cfi_def_cfa_offset 32
  70 0038 233C1100 		sd	ra,24(sp)
  71 003c 23388100 		sd	s0,16(sp)
  72 0040 23349100 		sd	s1,8(sp)
  73 0044 23302101 		sd	s2,0(sp)
  74              		.cfi_offset 1, -8
  75              		.cfi_offset 8, -16
  76              		.cfi_offset 9, -24
  77              		.cfi_offset 18, -32
  78 0048 13040102 		addi	s0,sp,32
  79              		.cfi_def_cfa 8, 0
  80 004c 93040500 		mv	s1,a0
  12:src/_sem.cpp  ****         return -3;
GAS LISTING /tmp/cclLPOZ2.s 			page 3


  13:src/_sem.cpp  ****     if (--val < 0){
  81              		.loc 1 13 5 is_stmt 1
  82              		.loc 1 13 11 is_stmt 0
  83 0050 83270501 		lw	a5,16(a0)
  84              		.loc 1 13 9
  85 0054 9B87F7FF 		addiw	a5,a5,-1
  86              		.loc 1 13 15
  87 0058 2328F500 		sw	a5,16(a0)
  88              		.loc 1 13 5
  89 005c 13970702 		slli	a4,a5,32
  90 0060 63400702 		bltz	a4,.L13
  14:src/_sem.cpp  ****         waitingThreads.addLast(TCB::running);
  15:src/_sem.cpp  ****         TCB::wait();
  16:src/_sem.cpp  ****     }
  17:src/_sem.cpp  ****     return 0;
  91              		.loc 1 17 12
  92 0064 13050000 		li	a0,0
  93              	.LVL4:
  94              	.L4:
  18:src/_sem.cpp  **** }
  95              		.loc 1 18 1
  96 0068 83308101 		ld	ra,24(sp)
  97              		.cfi_remember_state
  98              		.cfi_restore 1
  99 006c 03340101 		ld	s0,16(sp)
 100              		.cfi_restore 8
 101              		.cfi_def_cfa 2, 32
 102 0070 83348100 		ld	s1,8(sp)
 103              		.cfi_restore 9
 104              	.LVL5:
 105 0074 03390100 		ld	s2,0(sp)
 106              		.cfi_restore 18
 107 0078 13010102 		addi	sp,sp,32
 108              		.cfi_def_cfa_offset 0
 109 007c 67800000 		jr	ra
 110              	.LVL6:
 111              	.L13:
 112              		.cfi_restore_state
  14:src/_sem.cpp  ****         waitingThreads.addLast(TCB::running);
 113              		.loc 1 14 9 is_stmt 1
  14:src/_sem.cpp  ****         waitingThreads.addLast(TCB::running);
 114              		.loc 1 14 31 is_stmt 0
 115 0080 97070000 		la	a5,_ZN3TCB7runningE
 115      83B70700 
 116 0088 03B90700 		ld	s2,0(a5)
 117              	.LVL7:
 118              	.LBB36:
 119              	.LBB37:
 120              	.LBB38:
 121              	.LBB39:
  19:src/../h/../h/list.hpp ****         void operator delete(void *toFree) { MemoryAllocator::freee(toFree); }
 122              		.loc 2 19 72
 123 008c 13050001 		li	a0,16
 124 0090 97000000 		call	_ZN15MemoryAllocator5allocEm@plt
 124      E7800000 
 125              	.LVL8:
 126              	.LBE39:
GAS LISTING /tmp/cclLPOZ2.s 			page 4


 127              	.LBE38:
 128              	.LBB40:
 129              	.LBB41:
  17:src/../h/../h/list.hpp **** 
 130              		.loc 2 17 58
 131 0098 23302501 		sd	s2,0(a0)
 132 009c 23340500 		sd	zero,8(a0)
 133              	.LVL9:
 134              	.LBE41:
 135              	.LBE40:
  25:src/../h/../h/list.hpp **** 
  26:src/../h/../h/list.hpp ****     List(const List<T> &) = delete;
  27:src/../h/../h/list.hpp **** 
  28:src/../h/../h/list.hpp ****     List<T> &operator=(const List<T> &) = delete;
  29:src/../h/../h/list.hpp **** 
  30:src/../h/../h/list.hpp ****     void addFirst(T *data)
  31:src/../h/../h/list.hpp ****     {
  32:src/../h/../h/list.hpp ****         Elem *elem = new Elem(data, head);
  33:src/../h/../h/list.hpp ****         head = elem;
  34:src/../h/../h/list.hpp ****         if (!tail) { tail = head; }
  35:src/../h/../h/list.hpp ****     }
  36:src/../h/../h/list.hpp **** 
  37:src/../h/../h/list.hpp ****     void addLast(T *data)
  38:src/../h/../h/list.hpp ****     {
  39:src/../h/../h/list.hpp ****         Elem *elem = new Elem(data, 0);
  40:src/../h/../h/list.hpp ****         if (tail)
 136              		.loc 2 40 13
 137 00a0 83B78400 		ld	a5,8(s1)
 138              		.loc 2 40 9
 139 00a4 638E0700 		beqz	a5,.L5
  41:src/../h/../h/list.hpp ****         {
  42:src/../h/../h/list.hpp ****             tail->next = elem;
 140              		.loc 2 42 13
 141 00a8 23B4A700 		sd	a0,8(a5)
  43:src/../h/../h/list.hpp ****             tail = elem;
 142              		.loc 2 43 13
 143 00ac 23B4A400 		sd	a0,8(s1)
 144              	.L6:
 145              	.LVL10:
 146              	.LBE37:
 147              	.LBE36:
  15:src/_sem.cpp  ****     }
 148              		.loc 1 15 9 is_stmt 1
  15:src/_sem.cpp  ****     }
 149              		.loc 1 15 18 is_stmt 0
 150 00b0 97000000 		call	_ZN3TCB4waitEv@plt
 150      E7800000 
 151              	.LVL11:
  17:src/_sem.cpp  **** }
 152              		.loc 1 17 12
 153 00b8 13050000 		li	a0,0
 154 00bc 6FF0DFFA 		j	.L4
 155              	.LVL12:
 156              	.L5:
 157              	.LBB43:
 158              	.LBB42:
  44:src/../h/../h/list.hpp ****         } else
GAS LISTING /tmp/cclLPOZ2.s 			page 5


  45:src/../h/../h/list.hpp ****         {
  46:src/../h/../h/list.hpp ****             head = tail = elem;
 159              		.loc 2 46 13
 160 00c0 23B4A400 		sd	a0,8(s1)
 161 00c4 23B0A400 		sd	a0,0(s1)
 162 00c8 6FF09FFE 		j	.L6
 163              	.LVL13:
 164              	.L7:
 165              		.cfi_def_cfa_register 2
 166              		.cfi_restore 1
 167              		.cfi_restore 8
 168              		.cfi_restore 9
 169              		.cfi_restore 18
 170              	.LBE42:
 171              	.LBE43:
  12:src/_sem.cpp  ****     if (--val < 0){
 172              		.loc 1 12 17
 173 00cc 1305D0FF 		li	a0,-3
 174              	.LVL14:
 175              		.loc 1 18 1
 176 00d0 67800000 		ret
 177              		.cfi_endproc
 178              	.LFE24:
 180              		.align	2
 181              		.globl	_ZN4_sem5closeEv
 183              	_ZN4_sem5closeEv:
 184              	.LFB25:
  19:src/_sem.cpp  **** 
  20:src/_sem.cpp  **** int _sem::close() {
 185              		.loc 1 20 19 is_stmt 1
 186              		.cfi_startproc
 187              	.LVL15:
  21:src/_sem.cpp  ****     if (closed)
 188              		.loc 1 21 5
 189              		.loc 1 21 9 is_stmt 0
 190 00d4 83474501 		lbu	a5,20(a0)
 191              		.loc 1 21 5
 192 00d8 63960706 		bnez	a5,.L18
  20:src/_sem.cpp  ****     if (closed)
 193              		.loc 1 20 19
 194 00dc 130101FE 		addi	sp,sp,-32
 195              		.cfi_def_cfa_offset 32
 196 00e0 233C1100 		sd	ra,24(sp)
 197 00e4 23388100 		sd	s0,16(sp)
 198 00e8 23349100 		sd	s1,8(sp)
 199 00ec 23302101 		sd	s2,0(sp)
 200              		.cfi_offset 1, -8
 201              		.cfi_offset 8, -16
 202              		.cfi_offset 9, -24
 203              		.cfi_offset 18, -32
 204 00f0 13040102 		addi	s0,sp,32
 205              		.cfi_def_cfa 8, 0
 206 00f4 93040500 		mv	s1,a0
  22:src/_sem.cpp  ****         return -3;
  23:src/_sem.cpp  ****     val = 0;
 207              		.loc 1 23 5 is_stmt 1
 208              		.loc 1 23 9 is_stmt 0
GAS LISTING /tmp/cclLPOZ2.s 			page 6


 209 00f8 23280500 		sw	zero,16(a0)
  24:src/_sem.cpp  ****     closed = true;
 210              		.loc 1 24 5 is_stmt 1
 211              		.loc 1 24 12 is_stmt 0
 212 00fc 93071000 		li	a5,1
 213 0100 230AF500 		sb	a5,20(a0)
 214 0104 6F000002 		j	.L17
 215              	.LVL16:
 216              	.L25:
 217              	.LBB44:
 218              	.LBB45:
 219              	.LBB46:
  47:src/../h/../h/list.hpp ****         }
  48:src/../h/../h/list.hpp ****     }
  49:src/../h/../h/list.hpp **** 
  50:src/../h/../h/list.hpp ****     T *removeFirst()
  51:src/../h/../h/list.hpp ****     {
  52:src/../h/../h/list.hpp ****         if (!head) { return 0; }
  53:src/../h/../h/list.hpp **** 
  54:src/../h/../h/list.hpp ****         Elem *elem = head;
  55:src/../h/../h/list.hpp ****         head = head->next;
  56:src/../h/../h/list.hpp ****         if (!head) { tail = 0; }
 220              		.loc 2 56 22
 221 0108 23B40400 		sd	zero,8(s1)
 222              	.L16:
  57:src/../h/../h/list.hpp **** 
  58:src/../h/../h/list.hpp ****         T *ret = elem->data;
 223              		.loc 2 58 12
 224 010c 03390500 		ld	s2,0(a0)
 225              	.LVL17:
 226              	.LBB47:
 227              	.LBB48:
  20:src/../h/../h/list.hpp ****     };
 228              		.loc 2 20 68
 229 0110 97000000 		call	_ZN15MemoryAllocator5freeeEPv@plt
 229      E7800000 
 230              	.LVL18:
 231              	.LBE48:
 232              	.LBE47:
 233              	.LBE46:
 234              	.LBE45:
  25:src/_sem.cpp  ****     while (waitingThreads.peekFirst()!=nullptr){
  26:src/_sem.cpp  ****         TCB* thread = waitingThreads.removeFirst();
  27:src/_sem.cpp  ****         thread->signal();
 235              		.loc 1 27 9 is_stmt 1
 236              		.loc 1 27 23 is_stmt 0
 237 0118 13050900 		mv	a0,s2
 238 011c 97000000 		call	_ZN3TCB6signalEv@plt
 238      E7800000 
 239              	.LVL19:
 240              	.L17:
 241              	.LBE44:
  25:src/_sem.cpp  ****     while (waitingThreads.peekFirst()!=nullptr){
 242              		.loc 1 25 5 is_stmt 1
  25:src/_sem.cpp  ****     while (waitingThreads.peekFirst()!=nullptr){
 243              		.loc 1 25 38
 244              	.LBB51:
GAS LISTING /tmp/cclLPOZ2.s 			page 7


 245              	.LBB52:
  59:src/../h/../h/list.hpp ****         delete elem;
  60:src/../h/../h/list.hpp ****         return ret;
  61:src/../h/../h/list.hpp ****     }
  62:src/../h/../h/list.hpp **** 
  63:src/../h/../h/list.hpp ****     T *peekFirst()
  64:src/../h/../h/list.hpp ****     {
  65:src/../h/../h/list.hpp ****         if (!head) { return 0; }
 246              		.loc 2 65 14 is_stmt 0
 247 0124 03B50400 		ld	a0,0(s1)
 248              		.loc 2 65 9
 249 0128 63020502 		beqz	a0,.L19
  66:src/../h/../h/list.hpp ****         return head->data;
 250              		.loc 2 66 22
 251 012c 83370500 		ld	a5,0(a0)
 252              	.LVL20:
 253              	.LBE52:
 254              	.LBE51:
  25:src/_sem.cpp  ****     while (waitingThreads.peekFirst()!=nullptr){
 255              		.loc 1 25 38
 256 0130 638C0702 		beqz	a5,.L20
 257              	.LBB53:
  26:src/_sem.cpp  ****         thread->signal();
 258              		.loc 1 26 9 is_stmt 1
 259              	.LVL21:
 260              	.LBB50:
 261              	.LBB49:
  55:src/../h/../h/list.hpp ****         if (!head) { tail = 0; }
 262              		.loc 2 55 22 is_stmt 0
 263 0134 83378500 		ld	a5,8(a0)
  55:src/../h/../h/list.hpp ****         if (!head) { tail = 0; }
 264              		.loc 2 55 9
 265 0138 23B0F400 		sd	a5,0(s1)
  56:src/../h/../h/list.hpp **** 
 266              		.loc 2 56 9
 267 013c E39807FC 		bnez	a5,.L16
 268 0140 6FF09FFC 		j	.L25
 269              	.LVL22:
 270              	.L18:
 271              		.cfi_def_cfa_register 2
 272              		.cfi_restore 1
 273              		.cfi_restore 8
 274              		.cfi_restore 9
 275              		.cfi_restore 18
 276              	.LBE49:
 277              	.LBE50:
 278              	.LBE53:
  22:src/_sem.cpp  ****     val = 0;
 279              		.loc 1 22 17
 280 0144 1305D0FF 		li	a0,-3
 281              	.LVL23:
  28:src/_sem.cpp  ****     }
  29:src/_sem.cpp  ****     return 0;
  30:src/_sem.cpp  **** }
 282              		.loc 1 30 1
 283 0148 67800000 		ret
 284              	.LVL24:
GAS LISTING /tmp/cclLPOZ2.s 			page 8


 285              	.L19:
 286              		.cfi_def_cfa_register 8
 287              		.cfi_offset 1, -8
 288              		.cfi_offset 8, -16
 289              		.cfi_offset 9, -24
 290              		.cfi_offset 18, -32
  29:src/_sem.cpp  **** }
 291              		.loc 1 29 12
 292 014c 13050000 		li	a0,0
 293              	.LVL25:
 294              	.L15:
 295              		.loc 1 30 1
 296 0150 83308101 		ld	ra,24(sp)
 297              		.cfi_remember_state
 298              		.cfi_restore 1
 299 0154 03340101 		ld	s0,16(sp)
 300              		.cfi_restore 8
 301              		.cfi_def_cfa 2, 32
 302 0158 83348100 		ld	s1,8(sp)
 303              		.cfi_restore 9
 304              	.LVL26:
 305 015c 03390100 		ld	s2,0(sp)
 306              		.cfi_restore 18
 307 0160 13010102 		addi	sp,sp,32
 308              		.cfi_def_cfa_offset 0
 309 0164 67800000 		jr	ra
 310              	.LVL27:
 311              	.L20:
 312              		.cfi_restore_state
  29:src/_sem.cpp  **** }
 313              		.loc 1 29 12
 314 0168 13050000 		li	a0,0
 315 016c 6FF05FFE 		j	.L15
 316              		.cfi_endproc
 317              	.LFE25:
 319              		.align	2
 320              		.globl	_ZN4_sem6signalEv
 322              	_ZN4_sem6signalEv:
 323              	.LFB26:
  31:src/_sem.cpp  **** 
  32:src/_sem.cpp  **** int _sem::signal() {
 324              		.loc 1 32 20 is_stmt 1
 325              		.cfi_startproc
 326              	.LVL28:
  33:src/_sem.cpp  ****     if (closed)
 327              		.loc 1 33 5
 328              		.loc 1 33 9 is_stmt 0
 329 0170 03474501 		lbu	a4,20(a0)
 330              		.loc 1 33 5
 331 0174 63160708 		bnez	a4,.L30
 332 0178 93070500 		mv	a5,a0
  34:src/_sem.cpp  ****         return -3;
  35:src/_sem.cpp  ****     if(++val <= 0){
 333              		.loc 1 35 5 is_stmt 1
 334              	.LBB54:
 335              		.loc 1 35 10 is_stmt 0
 336 017c 03270501 		lw	a4,16(a0)
GAS LISTING /tmp/cclLPOZ2.s 			page 9


 337              		.loc 1 35 8
 338 0180 1B071700 		addiw	a4,a4,1
 339 0184 9B060700 		sext.w	a3,a4
 340              		.loc 1 35 14
 341 0188 2328E500 		sw	a4,16(a0)
 342              		.loc 1 35 5
 343 018c 6356D000 		blez	a3,.L37
 344              	.LBE54:
  36:src/_sem.cpp  ****         TCB* thread = waitingThreads.removeFirst();
  37:src/_sem.cpp  ****         thread->signal();
  38:src/_sem.cpp  ****     }
  39:src/_sem.cpp  ****     return 0;
 345              		.loc 1 39 12
 346 0190 13050000 		li	a0,0
 347              	.LVL29:
  40:src/_sem.cpp  **** }
 348              		.loc 1 40 1
 349 0194 67800000 		ret
 350              	.LVL30:
 351              	.L37:
  32:src/_sem.cpp  ****     if (closed)
 352              		.loc 1 32 20
 353 0198 130101FE 		addi	sp,sp,-32
 354              		.cfi_def_cfa_offset 32
 355 019c 233C1100 		sd	ra,24(sp)
 356 01a0 23388100 		sd	s0,16(sp)
 357 01a4 23349100 		sd	s1,8(sp)
 358              		.cfi_offset 1, -8
 359              		.cfi_offset 8, -16
 360              		.cfi_offset 9, -24
 361 01a8 13040102 		addi	s0,sp,32
 362              		.cfi_def_cfa 8, 0
 363              	.LBB63:
 364              	.LBB55:
  36:src/_sem.cpp  ****         TCB* thread = waitingThreads.removeFirst();
 365              		.loc 1 36 9 is_stmt 1
 366              	.LVL31:
 367              	.LBB56:
 368              	.LBB57:
  52:src/../h/../h/list.hpp **** 
 369              		.loc 2 52 14 is_stmt 0
 370 01ac 03350500 		ld	a0,0(a0)
 371              	.LVL32:
  52:src/../h/../h/list.hpp **** 
 372              		.loc 2 52 9
 373 01b0 63040504 		beqz	a0,.L32
 374              	.LVL33:
  55:src/../h/../h/list.hpp ****         if (!head) { tail = 0; }
 375              		.loc 2 55 22
 376 01b4 03378500 		ld	a4,8(a0)
  55:src/../h/../h/list.hpp ****         if (!head) { tail = 0; }
 377              		.loc 2 55 9
 378 01b8 23B0E700 		sd	a4,0(a5)
  56:src/../h/../h/list.hpp **** 
 379              		.loc 2 56 9
 380 01bc 630A0702 		beqz	a4,.L38
 381              	.L29:
GAS LISTING /tmp/cclLPOZ2.s 			page 10


  58:src/../h/../h/list.hpp ****         delete elem;
 382              		.loc 2 58 12
 383 01c0 83340500 		ld	s1,0(a0)
 384              	.LVL34:
 385              	.LBB58:
 386              	.LBB59:
  20:src/../h/../h/list.hpp ****     };
 387              		.loc 2 20 68
 388 01c4 97000000 		call	_ZN15MemoryAllocator5freeeEPv@plt
 388      E7800000 
 389              	.LVL35:
 390              	.L28:
 391              	.LBE59:
 392              	.LBE58:
 393              	.LBE57:
 394              	.LBE56:
  37:src/_sem.cpp  ****     }
 395              		.loc 1 37 9 is_stmt 1
  37:src/_sem.cpp  ****     }
 396              		.loc 1 37 23 is_stmt 0
 397 01cc 13850400 		mv	a0,s1
 398 01d0 97000000 		call	_ZN3TCB6signalEv@plt
 398      E7800000 
 399              	.LVL36:
 400              	.LBE55:
 401              	.LBE63:
  39:src/_sem.cpp  **** }
 402              		.loc 1 39 12
 403 01d8 13050000 		li	a0,0
 404              		.loc 1 40 1
 405 01dc 83308101 		ld	ra,24(sp)
 406              		.cfi_remember_state
 407              		.cfi_restore 1
 408 01e0 03340101 		ld	s0,16(sp)
 409              		.cfi_restore 8
 410              		.cfi_def_cfa 2, 32
 411 01e4 83348100 		ld	s1,8(sp)
 412              		.cfi_restore 9
 413              	.LVL37:
 414 01e8 13010102 		addi	sp,sp,32
 415              		.cfi_def_cfa_offset 0
 416 01ec 67800000 		jr	ra
 417              	.LVL38:
 418              	.L38:
 419              		.cfi_restore_state
 420              	.LBB64:
 421              	.LBB62:
 422              	.LBB61:
 423              	.LBB60:
  56:src/../h/../h/list.hpp **** 
 424              		.loc 2 56 22
 425 01f0 23B40700 		sd	zero,8(a5)
 426 01f4 6FF0DFFC 		j	.L29
 427              	.LVL39:
 428              	.L32:
  52:src/../h/../h/list.hpp **** 
 429              		.loc 2 52 29
GAS LISTING /tmp/cclLPOZ2.s 			page 11


 430 01f8 93040500 		mv	s1,a0
 431 01fc 6FF01FFD 		j	.L28
 432              	.LVL40:
 433              	.L30:
 434              		.cfi_def_cfa_register 2
 435              		.cfi_restore 1
 436              		.cfi_restore 8
 437              		.cfi_restore 9
 438              	.LBE60:
 439              	.LBE61:
 440              	.LBE62:
 441              	.LBE64:
  34:src/_sem.cpp  ****     if(++val <= 0){
 442              		.loc 1 34 17
 443 0200 1305D0FF 		li	a0,-3
 444              	.LVL41:
 445 0204 67800000 		ret
 446              		.cfi_endproc
 447              	.LFE26:
 449              		.align	2
 450              		.globl	_ZN4_semD2Ev
 452              	_ZN4_semD2Ev:
 453              	.LFB28:
  41:src/_sem.cpp  **** 
  42:src/_sem.cpp  **** _sem::~_sem() {
 454              		.loc 1 42 1 is_stmt 1
 455              		.cfi_startproc
 456              		.cfi_personality 0x9b,DW.ref.__gxx_personality_v0
 457              		.cfi_lsda 0x1b,.LLSDA28
 458              	.LVL42:
 459 0208 130101FF 		addi	sp,sp,-16
 460              		.cfi_def_cfa_offset 16
 461 020c 23341100 		sd	ra,8(sp)
 462 0210 23308100 		sd	s0,0(sp)
 463              		.cfi_offset 1, -8
 464              		.cfi_offset 8, -16
 465 0214 13040101 		addi	s0,sp,16
 466              		.cfi_def_cfa 8, 0
 467              	.LBB65:
  43:src/_sem.cpp  ****     close();
 468              		.loc 1 43 5
 469              		.loc 1 43 10 is_stmt 0
 470 0218 97000000 		call	_ZN4_sem5closeEv
 470      E7800000 
 471              	.LVL43:
 472              	.LBE65:
  44:src/_sem.cpp  **** }
 473              		.loc 1 44 1
 474 0220 83308100 		ld	ra,8(sp)
 475              		.cfi_restore 1
 476 0224 03340100 		ld	s0,0(sp)
 477              		.cfi_restore 8
 478              		.cfi_def_cfa 2, 16
 479 0228 13010101 		addi	sp,sp,16
 480              		.cfi_def_cfa_offset 0
 481 022c 67800000 		jr	ra
 482              		.cfi_endproc
GAS LISTING /tmp/cclLPOZ2.s 			page 12


 483              	.LFE28:
 484              		.globl	__gxx_personality_v0
 485              		.section	.gcc_except_table,"a",@progbits
 486              	.LLSDA28:
 487 0000 FF       		.byte	0xff
 488 0001 FF       		.byte	0xff
 489 0002 03       		.byte	0x3
 490 0003 00       		.byte	0
 491              		.text
 493              		.globl	_ZN4_semD1Ev
 494              		.set	_ZN4_semD1Ev,_ZN4_semD2Ev
 495              	.Letext0:
 496              		.file 3 "src/../h/../lib/hw.h"
 497              		.file 4 "src/../h/../h/../h/../h/MemoryDesc.hpp"
 498              		.file 5 "src/../h/../h/../h/MemoryAllocator.hpp"
 499              		.file 6 "src/../h/../h/tcb.hpp"
 500              		.file 7 "src/../h/syscall_c.h"
 501              		.file 8 "src/../h/_sem.hpp"
 3744              		.align	3
 3747              	DW.ref.__gxx_personality_v0:
 3748 0000 00000000 		.dword	__gxx_personality_v0
 3748      00000000 
 3749              		.ident	"GCC: (Ubuntu 9.4.0-1ubuntu1~20.04) 9.4.0"
 3750              		.section	.note.GNU-stack,"",@progbits
GAS LISTING /tmp/cclLPOZ2.s 			page 13


DEFINED SYMBOLS
                            *ABS*:0000000000000000 _sem.cpp
     /tmp/cclLPOZ2.s:9      .text:0000000000000000 _ZN4_semC2EPPS_j
     /tmp/cclLPOZ2.s:13     .text:0000000000000000 .L0 
     /tmp/cclLPOZ2.s:15     .text:0000000000000000 .L0 
     /tmp/cclLPOZ2.s:16     .text:0000000000000004 .L0 
     /tmp/cclLPOZ2.s:18     .text:0000000000000008 .L0 
     /tmp/cclLPOZ2.s:20     .text:000000000000000c .L0 
     /tmp/cclLPOZ2.s:27     .text:000000000000000c .L0 
     /tmp/cclLPOZ2.s:33     .text:0000000000000014 .L0 
     /tmp/cclLPOZ2.s:34     .text:0000000000000014 .L0 
     /tmp/cclLPOZ2.s:36     .text:0000000000000018 .L0 
     /tmp/cclLPOZ2.s:37     .text:0000000000000018 .L0 
     /tmp/cclLPOZ2.s:39     .text:000000000000001c .L0 
     /tmp/cclLPOZ2.s:40     .text:000000000000001c .L0 
     /tmp/cclLPOZ2.s:43     .text:0000000000000020 .L0 
     /tmp/cclLPOZ2.s:44     .text:0000000000000024 .L0 
     /tmp/cclLPOZ2.s:45     .text:0000000000000024 .L0 
     /tmp/cclLPOZ2.s:47     .text:0000000000000028 .L0 
     /tmp/cclLPOZ2.s:49     .text:000000000000002c .L0 
     /tmp/cclLPOZ2.s:9      .text:0000000000000000 _ZN4_semC1EPPS_j
     /tmp/cclLPOZ2.s:57     .text:000000000000002c _ZN4_sem4waitEv
     /tmp/cclLPOZ2.s:60     .text:000000000000002c .L0 
     /tmp/cclLPOZ2.s:62     .text:000000000000002c .L0 
     /tmp/cclLPOZ2.s:63     .text:000000000000002c .L0 
     /tmp/cclLPOZ2.s:64     .text:000000000000002c .L0 
     /tmp/cclLPOZ2.s:66     .text:0000000000000030 .L0 
     /tmp/cclLPOZ2.s:68     .text:0000000000000034 .L0 
     /tmp/cclLPOZ2.s:69     .text:0000000000000038 .L0 
     /tmp/cclLPOZ2.s:74     .text:0000000000000048 .L0 
     /tmp/cclLPOZ2.s:75     .text:0000000000000048 .L0 
     /tmp/cclLPOZ2.s:76     .text:0000000000000048 .L0 
     /tmp/cclLPOZ2.s:77     .text:0000000000000048 .L0 
     /tmp/cclLPOZ2.s:79     .text:000000000000004c .L0 
     /tmp/cclLPOZ2.s:82     .text:0000000000000050 .L0 
     /tmp/cclLPOZ2.s:83     .text:0000000000000050 .L0 
     /tmp/cclLPOZ2.s:85     .text:0000000000000054 .L0 
     /tmp/cclLPOZ2.s:87     .text:0000000000000058 .L0 
     /tmp/cclLPOZ2.s:89     .text:000000000000005c .L0 
     /tmp/cclLPOZ2.s:92     .text:0000000000000064 .L0 
     /tmp/cclLPOZ2.s:96     .text:0000000000000068 .L0 
     /tmp/cclLPOZ2.s:97     .text:000000000000006c .L0 
     /tmp/cclLPOZ2.s:98     .text:000000000000006c .L0 
     /tmp/cclLPOZ2.s:100    .text:0000000000000070 .L0 
     /tmp/cclLPOZ2.s:101    .text:0000000000000070 .L0 
     /tmp/cclLPOZ2.s:103    .text:0000000000000074 .L0 
     /tmp/cclLPOZ2.s:106    .text:0000000000000078 .L0 
     /tmp/cclLPOZ2.s:108    .text:000000000000007c .L0 
     /tmp/cclLPOZ2.s:112    .text:0000000000000080 .L0 
     /tmp/cclLPOZ2.s:114    .text:0000000000000080 .L0 
     /tmp/cclLPOZ2.s:115    .text:0000000000000080 .L0 
     /tmp/cclLPOZ2.s:123    .text:000000000000008c .L0 
     /tmp/cclLPOZ2.s:131    .text:0000000000000098 .L0 
     /tmp/cclLPOZ2.s:137    .text:00000000000000a0 .L0 
     /tmp/cclLPOZ2.s:139    .text:00000000000000a4 .L0 
     /tmp/cclLPOZ2.s:141    .text:00000000000000a8 .L0 
     /tmp/cclLPOZ2.s:143    .text:00000000000000ac .L0 
GAS LISTING /tmp/cclLPOZ2.s 			page 14


     /tmp/cclLPOZ2.s:149    .text:00000000000000b0 .L0 
     /tmp/cclLPOZ2.s:150    .text:00000000000000b0 .L0 
     /tmp/cclLPOZ2.s:153    .text:00000000000000b8 .L0 
     /tmp/cclLPOZ2.s:160    .text:00000000000000c0 .L0 
     /tmp/cclLPOZ2.s:165    .text:00000000000000cc .L0 
     /tmp/cclLPOZ2.s:166    .text:00000000000000cc .L0 
     /tmp/cclLPOZ2.s:167    .text:00000000000000cc .L0 
     /tmp/cclLPOZ2.s:168    .text:00000000000000cc .L0 
     /tmp/cclLPOZ2.s:169    .text:00000000000000cc .L0 
     /tmp/cclLPOZ2.s:173    .text:00000000000000cc .L0 
     /tmp/cclLPOZ2.s:176    .text:00000000000000d0 .L0 
     /tmp/cclLPOZ2.s:177    .text:00000000000000d4 .L0 
     /tmp/cclLPOZ2.s:183    .text:00000000000000d4 _ZN4_sem5closeEv
     /tmp/cclLPOZ2.s:186    .text:00000000000000d4 .L0 
     /tmp/cclLPOZ2.s:188    .text:00000000000000d4 .L0 
     /tmp/cclLPOZ2.s:189    .text:00000000000000d4 .L0 
     /tmp/cclLPOZ2.s:190    .text:00000000000000d4 .L0 
     /tmp/cclLPOZ2.s:192    .text:00000000000000d8 .L0 
     /tmp/cclLPOZ2.s:194    .text:00000000000000dc .L0 
     /tmp/cclLPOZ2.s:195    .text:00000000000000e0 .L0 
     /tmp/cclLPOZ2.s:200    .text:00000000000000f0 .L0 
     /tmp/cclLPOZ2.s:201    .text:00000000000000f0 .L0 
     /tmp/cclLPOZ2.s:202    .text:00000000000000f0 .L0 
     /tmp/cclLPOZ2.s:203    .text:00000000000000f0 .L0 
     /tmp/cclLPOZ2.s:205    .text:00000000000000f4 .L0 
     /tmp/cclLPOZ2.s:208    .text:00000000000000f8 .L0 
     /tmp/cclLPOZ2.s:209    .text:00000000000000f8 .L0 
     /tmp/cclLPOZ2.s:211    .text:00000000000000fc .L0 
     /tmp/cclLPOZ2.s:212    .text:00000000000000fc .L0 
     /tmp/cclLPOZ2.s:221    .text:0000000000000108 .L0 
     /tmp/cclLPOZ2.s:224    .text:000000000000010c .L0 
     /tmp/cclLPOZ2.s:229    .text:0000000000000110 .L0 
     /tmp/cclLPOZ2.s:236    .text:0000000000000118 .L0 
     /tmp/cclLPOZ2.s:237    .text:0000000000000118 .L0 
     /tmp/cclLPOZ2.s:243    .text:0000000000000124 .L0 
     /tmp/cclLPOZ2.s:246    .text:0000000000000124 .L0 
     /tmp/cclLPOZ2.s:247    .text:0000000000000124 .L0 
     /tmp/cclLPOZ2.s:249    .text:0000000000000128 .L0 
     /tmp/cclLPOZ2.s:251    .text:000000000000012c .L0 
     /tmp/cclLPOZ2.s:256    .text:0000000000000130 .L0 
     /tmp/cclLPOZ2.s:262    .text:0000000000000134 .L0 
     /tmp/cclLPOZ2.s:263    .text:0000000000000134 .L0 
     /tmp/cclLPOZ2.s:265    .text:0000000000000138 .L0 
     /tmp/cclLPOZ2.s:267    .text:000000000000013c .L0 
     /tmp/cclLPOZ2.s:271    .text:0000000000000144 .L0 
     /tmp/cclLPOZ2.s:272    .text:0000000000000144 .L0 
     /tmp/cclLPOZ2.s:273    .text:0000000000000144 .L0 
     /tmp/cclLPOZ2.s:274    .text:0000000000000144 .L0 
     /tmp/cclLPOZ2.s:275    .text:0000000000000144 .L0 
     /tmp/cclLPOZ2.s:280    .text:0000000000000144 .L0 
     /tmp/cclLPOZ2.s:283    .text:0000000000000148 .L0 
     /tmp/cclLPOZ2.s:286    .text:000000000000014c .L0 
     /tmp/cclLPOZ2.s:287    .text:000000000000014c .L0 
     /tmp/cclLPOZ2.s:288    .text:000000000000014c .L0 
     /tmp/cclLPOZ2.s:289    .text:000000000000014c .L0 
     /tmp/cclLPOZ2.s:290    .text:000000000000014c .L0 
     /tmp/cclLPOZ2.s:292    .text:000000000000014c .L0 
GAS LISTING /tmp/cclLPOZ2.s 			page 15


     /tmp/cclLPOZ2.s:296    .text:0000000000000150 .L0 
     /tmp/cclLPOZ2.s:297    .text:0000000000000154 .L0 
     /tmp/cclLPOZ2.s:298    .text:0000000000000154 .L0 
     /tmp/cclLPOZ2.s:300    .text:0000000000000158 .L0 
     /tmp/cclLPOZ2.s:301    .text:0000000000000158 .L0 
     /tmp/cclLPOZ2.s:303    .text:000000000000015c .L0 
     /tmp/cclLPOZ2.s:306    .text:0000000000000160 .L0 
     /tmp/cclLPOZ2.s:308    .text:0000000000000164 .L0 
     /tmp/cclLPOZ2.s:312    .text:0000000000000168 .L0 
     /tmp/cclLPOZ2.s:314    .text:0000000000000168 .L0 
     /tmp/cclLPOZ2.s:316    .text:0000000000000170 .L0 
     /tmp/cclLPOZ2.s:322    .text:0000000000000170 _ZN4_sem6signalEv
     /tmp/cclLPOZ2.s:325    .text:0000000000000170 .L0 
     /tmp/cclLPOZ2.s:327    .text:0000000000000170 .L0 
     /tmp/cclLPOZ2.s:328    .text:0000000000000170 .L0 
     /tmp/cclLPOZ2.s:329    .text:0000000000000170 .L0 
     /tmp/cclLPOZ2.s:331    .text:0000000000000174 .L0 
     /tmp/cclLPOZ2.s:335    .text:000000000000017c .L0 
     /tmp/cclLPOZ2.s:336    .text:000000000000017c .L0 
     /tmp/cclLPOZ2.s:338    .text:0000000000000180 .L0 
     /tmp/cclLPOZ2.s:341    .text:0000000000000188 .L0 
     /tmp/cclLPOZ2.s:343    .text:000000000000018c .L0 
     /tmp/cclLPOZ2.s:346    .text:0000000000000190 .L0 
     /tmp/cclLPOZ2.s:349    .text:0000000000000194 .L0 
     /tmp/cclLPOZ2.s:353    .text:0000000000000198 .L0 
     /tmp/cclLPOZ2.s:354    .text:000000000000019c .L0 
     /tmp/cclLPOZ2.s:358    .text:00000000000001a8 .L0 
     /tmp/cclLPOZ2.s:359    .text:00000000000001a8 .L0 
     /tmp/cclLPOZ2.s:360    .text:00000000000001a8 .L0 
     /tmp/cclLPOZ2.s:362    .text:00000000000001ac .L0 
     /tmp/cclLPOZ2.s:369    .text:00000000000001ac .L0 
     /tmp/cclLPOZ2.s:370    .text:00000000000001ac .L0 
     /tmp/cclLPOZ2.s:373    .text:00000000000001b0 .L0 
     /tmp/cclLPOZ2.s:376    .text:00000000000001b4 .L0 
     /tmp/cclLPOZ2.s:378    .text:00000000000001b8 .L0 
     /tmp/cclLPOZ2.s:380    .text:00000000000001bc .L0 
     /tmp/cclLPOZ2.s:383    .text:00000000000001c0 .L0 
     /tmp/cclLPOZ2.s:388    .text:00000000000001c4 .L0 
     /tmp/cclLPOZ2.s:396    .text:00000000000001cc .L0 
     /tmp/cclLPOZ2.s:397    .text:00000000000001cc .L0 
     /tmp/cclLPOZ2.s:403    .text:00000000000001d8 .L0 
     /tmp/cclLPOZ2.s:405    .text:00000000000001dc .L0 
     /tmp/cclLPOZ2.s:406    .text:00000000000001e0 .L0 
     /tmp/cclLPOZ2.s:407    .text:00000000000001e0 .L0 
     /tmp/cclLPOZ2.s:409    .text:00000000000001e4 .L0 
     /tmp/cclLPOZ2.s:410    .text:00000000000001e4 .L0 
     /tmp/cclLPOZ2.s:412    .text:00000000000001e8 .L0 
     /tmp/cclLPOZ2.s:415    .text:00000000000001ec .L0 
     /tmp/cclLPOZ2.s:419    .text:00000000000001f0 .L0 
     /tmp/cclLPOZ2.s:425    .text:00000000000001f0 .L0 
     /tmp/cclLPOZ2.s:430    .text:00000000000001f8 .L0 
     /tmp/cclLPOZ2.s:434    .text:0000000000000200 .L0 
     /tmp/cclLPOZ2.s:435    .text:0000000000000200 .L0 
     /tmp/cclLPOZ2.s:436    .text:0000000000000200 .L0 
     /tmp/cclLPOZ2.s:437    .text:0000000000000200 .L0 
     /tmp/cclLPOZ2.s:443    .text:0000000000000200 .L0 
     /tmp/cclLPOZ2.s:446    .text:0000000000000208 .L0 
GAS LISTING /tmp/cclLPOZ2.s 			page 16


     /tmp/cclLPOZ2.s:452    .text:0000000000000208 _ZN4_semD2Ev
     /tmp/cclLPOZ2.s:455    .text:0000000000000208 .L0 
     /tmp/cclLPOZ2.s:3747   .data.rel.local.DW.ref.__gxx_personality_v0:0000000000000000 DW.ref.__gxx_personality_v0
     /tmp/cclLPOZ2.s:459    .text:0000000000000208 .L0 
     /tmp/cclLPOZ2.s:460    .text:000000000000020c .L0 
     /tmp/cclLPOZ2.s:463    .text:0000000000000214 .L0 
     /tmp/cclLPOZ2.s:464    .text:0000000000000214 .L0 
     /tmp/cclLPOZ2.s:466    .text:0000000000000218 .L0 
     /tmp/cclLPOZ2.s:469    .text:0000000000000218 .L0 
     /tmp/cclLPOZ2.s:470    .text:0000000000000218 .L0 
     /tmp/cclLPOZ2.s:474    .text:0000000000000220 .L0 
     /tmp/cclLPOZ2.s:475    .text:0000000000000224 .L0 
     /tmp/cclLPOZ2.s:477    .text:0000000000000228 .L0 
     /tmp/cclLPOZ2.s:478    .text:0000000000000228 .L0 
     /tmp/cclLPOZ2.s:480    .text:000000000000022c .L0 
     /tmp/cclLPOZ2.s:482    .text:0000000000000230 .L0 
     /tmp/cclLPOZ2.s:452    .text:0000000000000208 _ZN4_semD1Ev
     /tmp/cclLPOZ2.s:502    .text:0000000000000230 .L0 
     /tmp/cclLPOZ2.s:115    .text:0000000000000080 .L0 
     /tmp/cclLPOZ2.s:164    .text:00000000000000cc .L7
     /tmp/cclLPOZ2.s:111    .text:0000000000000080 .L13
     /tmp/cclLPOZ2.s:156    .text:00000000000000c0 .L5
     /tmp/cclLPOZ2.s:94     .text:0000000000000068 .L4
     /tmp/cclLPOZ2.s:144    .text:00000000000000b0 .L6
     /tmp/cclLPOZ2.s:270    .text:0000000000000144 .L18
     /tmp/cclLPOZ2.s:240    .text:0000000000000124 .L17
     /tmp/cclLPOZ2.s:285    .text:000000000000014c .L19
     /tmp/cclLPOZ2.s:311    .text:0000000000000168 .L20
     /tmp/cclLPOZ2.s:222    .text:000000000000010c .L16
     /tmp/cclLPOZ2.s:216    .text:0000000000000108 .L25
     /tmp/cclLPOZ2.s:294    .text:0000000000000150 .L15
     /tmp/cclLPOZ2.s:433    .text:0000000000000200 .L30
     /tmp/cclLPOZ2.s:351    .text:0000000000000198 .L37
     /tmp/cclLPOZ2.s:428    .text:00000000000001f8 .L32
     /tmp/cclLPOZ2.s:418    .text:00000000000001f0 .L38
     /tmp/cclLPOZ2.s:381    .text:00000000000001c0 .L29
     /tmp/cclLPOZ2.s:390    .text:00000000000001cc .L28
     /tmp/cclLPOZ2.s:1958   .debug_abbrev:0000000000000000 .Ldebug_abbrev0
     /tmp/cclLPOZ2.s:3689   .debug_str:0000000000000683 .LASF133
     /tmp/cclLPOZ2.s:3461   .debug_str:0000000000000053 .LASF134
     /tmp/cclLPOZ2.s:3625   .debug_str:00000000000004da .LASF135
     /tmp/cclLPOZ2.s:5      .text:0000000000000000 .Ltext0
     /tmp/cclLPOZ2.s:495    .text:0000000000000230 .Letext0
     /tmp/cclLPOZ2.s:3447   .debug_line:0000000000000000 .Ldebug_line0
     /tmp/cclLPOZ2.s:3609   .debug_str:000000000000047c .LASF0
     /tmp/cclLPOZ2.s:3627   .debug_str:00000000000004f9 .LASF1
     /tmp/cclLPOZ2.s:3595   .debug_str:0000000000000417 .LASF2
     /tmp/cclLPOZ2.s:3563   .debug_str:000000000000033e .LASF4
     /tmp/cclLPOZ2.s:3669   .debug_str:00000000000005fc .LASF3
     /tmp/cclLPOZ2.s:3471   .debug_str:00000000000000a9 .LASF5
     /tmp/cclLPOZ2.s:3513   .debug_str:00000000000001b5 .LASF6
     /tmp/cclLPOZ2.s:3631   .debug_str:0000000000000513 .LASF7
     /tmp/cclLPOZ2.s:3607   .debug_str:0000000000000469 .LASF8
     /tmp/cclLPOZ2.s:3705   .debug_str:00000000000007a9 .LASF9
     /tmp/cclLPOZ2.s:3543   .debug_str:000000000000028b .LASF10
     /tmp/cclLPOZ2.s:3641   .debug_str:0000000000000540 .LASF11
     /tmp/cclLPOZ2.s:3693   .debug_str:0000000000000753 .LASF12
GAS LISTING /tmp/cclLPOZ2.s 			page 17


     /tmp/cclLPOZ2.s:3475   .debug_str:00000000000000cb .LASF13
     /tmp/cclLPOZ2.s:3455   .debug_str:000000000000002c .LASF14
     /tmp/cclLPOZ2.s:3487   .debug_str:0000000000000126 .LASF15
     /tmp/cclLPOZ2.s:3663   .debug_str:00000000000005d6 .LASF16
     /tmp/cclLPOZ2.s:3503   .debug_str:0000000000000164 .LASF17
     /tmp/cclLPOZ2.s:3533   .debug_str:0000000000000253 .LASF101
     /tmp/cclLPOZ2.s:3617   .debug_str:00000000000004ab .LASF18
     /tmp/cclLPOZ2.s:3453   .debug_str:0000000000000027 .LASF19
     /tmp/cclLPOZ2.s:3703   .debug_str:000000000000079e .LASF24
     /tmp/cclLPOZ2.s:3735   .debug_str:0000000000000889 .LASF20
     /tmp/cclLPOZ2.s:3719   .debug_str:0000000000000806 .LASF21
     /tmp/cclLPOZ2.s:3683   .debug_str:000000000000065b .LASF22
     /tmp/cclLPOZ2.s:3629   .debug_str:000000000000050c .LASF23
     /tmp/cclLPOZ2.s:3589   .debug_str:00000000000003ee .LASF31
     /tmp/cclLPOZ2.s:3527   .debug_str:0000000000000236 .LASF25
     /tmp/cclLPOZ2.s:3551   .debug_str:00000000000002c6 .LASF26
     /tmp/cclLPOZ2.s:3615   .debug_str:00000000000004a5 .LASF27
     /tmp/cclLPOZ2.s:3739   .debug_str:000000000000089f .LASF29
     /tmp/cclLPOZ2.s:3675   .debug_str:0000000000000628 .LASF28
     /tmp/cclLPOZ2.s:3567   .debug_str:0000000000000351 .LASF30
     /tmp/cclLPOZ2.s:3591   .debug_str:00000000000003fe .LASF82
     /tmp/cclLPOZ2.s:3573   .debug_str:0000000000000384 .LASF84
     /tmp/cclLPOZ2.s:3581   .debug_str:00000000000003c1 .LASF32
     /tmp/cclLPOZ2.s:3583   .debug_str:00000000000003cb .LASF34
     /tmp/cclLPOZ2.s:3657   .debug_str:00000000000005ad .LASF33
     /tmp/cclLPOZ2.s:3599   .debug_str:000000000000042a .LASF36
     /tmp/cclLPOZ2.s:3715   .debug_str:00000000000007f4 .LASF35
     /tmp/cclLPOZ2.s:3507   .debug_str:0000000000000187 .LASF37
     /tmp/cclLPOZ2.s:3519   .debug_str:00000000000001f5 .LASF73
     /tmp/cclLPOZ2.s:3697   .debug_str:0000000000000769 .LASF136
     /tmp/cclLPOZ2.s:3509   .debug_str:000000000000019f .LASF38
     /tmp/cclLPOZ2.s:3597   .debug_str:0000000000000425 .LASF39
     /tmp/cclLPOZ2.s:3561   .debug_str:0000000000000339 .LASF40
     /tmp/cclLPOZ2.s:3613   .debug_str:0000000000000492 .LASF41
     /tmp/cclLPOZ2.s:3661   .debug_str:00000000000005bf .LASF47
     /tmp/cclLPOZ2.s:3601   .debug_str:0000000000000449 .LASF137
     /tmp/cclLPOZ2.s:3549   .debug_str:00000000000002af .LASF138
     /tmp/cclLPOZ2.s:3687   .debug_str:000000000000067a .LASF42
     /tmp/cclLPOZ2.s:3517   .debug_str:00000000000001d8 .LASF43
     /tmp/cclLPOZ2.s:3541   .debug_str:0000000000000283 .LASF44
     /tmp/cclLPOZ2.s:3515   .debug_str:00000000000001bc .LASF45
     /tmp/cclLPOZ2.s:3691   .debug_str:0000000000000747 .LASF46
     /tmp/cclLPOZ2.s:3651   .debug_str:000000000000057e .LASF48
     /tmp/cclLPOZ2.s:3483   .debug_str:000000000000010f .LASF49
     /tmp/cclLPOZ2.s:3473   .debug_str:00000000000000b0 .LASF50
     /tmp/cclLPOZ2.s:3699   .debug_str:0000000000000782 .LASF51
     /tmp/cclLPOZ2.s:3463   .debug_str:0000000000000060 .LASF52
     /tmp/cclLPOZ2.s:3575   .debug_str:00000000000003a4 .LASF53
     /tmp/cclLPOZ2.s:3721   .debug_str:000000000000080b .LASF54
     /tmp/cclLPOZ2.s:3459   .debug_str:000000000000004b .LASF55
     /tmp/cclLPOZ2.s:3553   .debug_str:00000000000002d0 .LASF56
     /tmp/cclLPOZ2.s:3653   .debug_str:000000000000059c .LASF57
     /tmp/cclLPOZ2.s:3585   .debug_str:00000000000003d0 .LASF58
     /tmp/cclLPOZ2.s:3467   .debug_str:000000000000008a .LASF59
     /tmp/cclLPOZ2.s:3571   .debug_str:0000000000000377 .LASF60
     /tmp/cclLPOZ2.s:3723   .debug_str:0000000000000825 .LASF61
     /tmp/cclLPOZ2.s:3655   .debug_str:00000000000005a8 .LASF139
GAS LISTING /tmp/cclLPOZ2.s 			page 18


     /tmp/cclLPOZ2.s:3603   .debug_str:0000000000000453 .LASF62
     /tmp/cclLPOZ2.s:3555   .debug_str:00000000000002d5 .LASF63
     /tmp/cclLPOZ2.s:3545   .debug_str:0000000000000299 .LASF64
     /tmp/cclLPOZ2.s:3449   .debug_str:0000000000000000 .LASF65
     /tmp/cclLPOZ2.s:3469   .debug_str:00000000000000a3 .LASF66
     /tmp/cclLPOZ2.s:3593   .debug_str:0000000000000407 .LASF67
     /tmp/cclLPOZ2.s:3525   .debug_str:000000000000022e .LASF68
     /tmp/cclLPOZ2.s:3491   .debug_str:000000000000013a .LASF69
     /tmp/cclLPOZ2.s:3495   .debug_str:0000000000000145 .LASF70
     /tmp/cclLPOZ2.s:3557   .debug_str:00000000000002f9 .LASF71
     /tmp/cclLPOZ2.s:3565   .debug_str:0000000000000345 .LASF72
     /tmp/cclLPOZ2.s:3659   .debug_str:00000000000005b2 .LASF74
     /tmp/cclLPOZ2.s:3729   .debug_str:000000000000085c .LASF140
     /tmp/cclLPOZ2.s:3523   .debug_str:0000000000000229 .LASF75
     /tmp/cclLPOZ2.s:3493   .debug_str:000000000000013f .LASF76
     /tmp/cclLPOZ2.s:3569   .debug_str:000000000000036f .LASF77
     /tmp/cclLPOZ2.s:3619   .debug_str:00000000000004b5 .LASF78
     /tmp/cclLPOZ2.s:3539   .debug_str:0000000000000276 .LASF79
     /tmp/cclLPOZ2.s:3733   .debug_str:0000000000000881 .LASF80
     /tmp/cclLPOZ2.s:3647   .debug_str:0000000000000569 .LASF81
     /tmp/cclLPOZ2.s:3577   .debug_str:00000000000003ad .LASF88
     /tmp/cclLPOZ2.s:3479   .debug_str:00000000000000e0 .LASF90
     /tmp/cclLPOZ2.s:3711   .debug_str:00000000000007db .LASF141
     /tmp/cclLPOZ2.s:3559   .debug_str:0000000000000311 .LASF142
     /tmp/cclLPOZ2.s:3637   .debug_str:0000000000000535 .LASF83
     /tmp/cclLPOZ2.s:3731   .debug_str:0000000000000872 .LASF85
     /tmp/cclLPOZ2.s:3665   .debug_str:00000000000005ec .LASF86
     /tmp/cclLPOZ2.s:3481   .debug_str:00000000000000f9 .LASF87
     /tmp/cclLPOZ2.s:3709   .debug_str:00000000000007cc .LASF89
     /tmp/cclLPOZ2.s:3685   .debug_str:0000000000000660 .LASF91
     /tmp/cclLPOZ2.s:3501   .debug_str:000000000000015d .LASF92
     /tmp/cclLPOZ2.s:3521   .debug_str:0000000000000205 .LASF93
     /tmp/cclLPOZ2.s:3611   .debug_str:0000000000000489 .LASF94
     /tmp/cclLPOZ2.s:3529   .debug_str:000000000000023b .LASF95
     /tmp/cclLPOZ2.s:3477   .debug_str:00000000000000db .LASF96
     /tmp/cclLPOZ2.s:3725   .debug_str:0000000000000847 .LASF97
     /tmp/cclLPOZ2.s:3635   .debug_str:000000000000052e .LASF98
     /tmp/cclLPOZ2.s:3587   .debug_str:00000000000003dd .LASF99
     /tmp/cclLPOZ2.s:3671   .debug_str:000000000000060e .LASF100
     /tmp/cclLPOZ2.s:3713   .debug_str:00000000000007e9 .LASF143
     /tmp/cclLPOZ2.s:3695   .debug_str:0000000000000762 .LASF102
     /tmp/cclLPOZ2.s:3621   .debug_str:00000000000004bf .LASF103
     /tmp/cclLPOZ2.s:3633   .debug_str:0000000000000526 .LASF104
     /tmp/cclLPOZ2.s:3639   .debug_str:000000000000053a .LASF105
     /tmp/cclLPOZ2.s:3489   .debug_str:0000000000000132 .LASF106
     /tmp/cclLPOZ2.s:3535   .debug_str:0000000000000260 .LASF107
     /tmp/cclLPOZ2.s:3673   .debug_str:000000000000061f .LASF108
     /tmp/cclLPOZ2.s:3497   .debug_str:0000000000000151 .LASF109
     /tmp/cclLPOZ2.s:3531   .debug_str:000000000000024e .LASF110
     /tmp/cclLPOZ2.s:3727   .debug_str:0000000000000856 .LASF111
     /tmp/cclLPOZ2.s:3717   .debug_str:0000000000000801 .LASF112
     /tmp/cclLPOZ2.s:3579   .debug_str:00000000000003bb .LASF113
     /tmp/cclLPOZ2.s:3465   .debug_str:000000000000007d .LASF114
     /tmp/cclLPOZ2.s:3505   .debug_str:000000000000017a .LASF115
     /tmp/cclLPOZ2.s:3537   .debug_str:0000000000000268 .LASF116
     /tmp/cclLPOZ2.s:3457   .debug_str:000000000000003c .LASF117
     /tmp/cclLPOZ2.s:3679   .debug_str:000000000000064d .LASF118
GAS LISTING /tmp/cclLPOZ2.s 			page 19


     /tmp/cclLPOZ2.s:3737   .debug_str:000000000000088e .LASF119
     /tmp/cclLPOZ2.s:3451   .debug_str:0000000000000021 .LASF120
     /tmp/cclLPOZ2.s:3701   .debug_str:000000000000078d .LASF121
     /tmp/cclLPOZ2.s:3645   .debug_str:0000000000000559 .LASF122
     /tmp/cclLPOZ2.s:3623   .debug_str:00000000000004c8 .LASF123
     /tmp/cclLPOZ2.s:3499   .debug_str:0000000000000156 .LASF124
     /tmp/cclLPOZ2.s:3649   .debug_str:0000000000000579 .LASF125
     /tmp/cclLPOZ2.s:3677   .debug_str:000000000000062e .LASF127
     /tmp/cclLPOZ2.s:3667   .debug_str:00000000000005f7 .LASF126
     /tmp/cclLPOZ2.s:3707   .debug_str:00000000000007b9 .LASF128
     /tmp/cclLPOZ2.s:3643   .debug_str:000000000000054f .LASF129
     /tmp/cclLPOZ2.s:3485   .debug_str:0000000000000119 .LASF144
     /tmp/cclLPOZ2.s:453    .text:0000000000000208 .LFB28
     /tmp/cclLPOZ2.s:483    .text:0000000000000230 .LFE28
     /tmp/cclLPOZ2.s:3099   .debug_loc:0000000000000000 .LLST22
     /tmp/cclLPOZ2.s:471    .text:0000000000000220 .LVL43
     /tmp/cclLPOZ2.s:323    .text:0000000000000170 .LFB26
     /tmp/cclLPOZ2.s:447    .text:0000000000000208 .LFE26
     /tmp/cclLPOZ2.s:3113   .debug_loc:0000000000000039 .LLST16
     /tmp/cclLPOZ2.s:3415   .debug_ranges:0000000000000000 .Ldebug_ranges0
     /tmp/cclLPOZ2.s:3605   .debug_str:0000000000000462 .LASF130
     /tmp/cclLPOZ2.s:3154   .debug_loc:00000000000000e7 .LLST17
     /tmp/cclLPOZ2.s:367    .text:00000000000001ac .LBB56
     /tmp/cclLPOZ2.s:3161   .debug_loc:000000000000010a .LLST18
     /tmp/cclLPOZ2.s:3183   .debug_loc:0000000000000169 .LLST19
     /tmp/cclLPOZ2.s:3194   .debug_loc:000000000000019f .LLST20
     /tmp/cclLPOZ2.s:385    .text:00000000000001c4 .LBB58
     /tmp/cclLPOZ2.s:392    .text:00000000000001cc .LBE58
     /tmp/cclLPOZ2.s:3201   .debug_loc:00000000000001c2 .LLST21
     /tmp/cclLPOZ2.s:389    .text:00000000000001cc .LVL35
     /tmp/cclLPOZ2.s:399    .text:00000000000001d8 .LVL36
     /tmp/cclLPOZ2.s:184    .text:00000000000000d4 .LFB25
     /tmp/cclLPOZ2.s:317    .text:0000000000000170 .LFE25
     /tmp/cclLPOZ2.s:3208   .debug_loc:00000000000001e5 .LLST9
     /tmp/cclLPOZ2.s:3245   .debug_loc:0000000000000280 .LLST10
     /tmp/cclLPOZ2.s:218    .text:0000000000000108 .LBB45
     /tmp/cclLPOZ2.s:3252   .debug_loc:00000000000002a3 .LLST11
     /tmp/cclLPOZ2.s:3263   .debug_loc:00000000000002d9 .LLST12
     /tmp/cclLPOZ2.s:3274   .debug_loc:000000000000030f .LLST13
     /tmp/cclLPOZ2.s:226    .text:0000000000000110 .LBB47
     /tmp/cclLPOZ2.s:232    .text:0000000000000118 .LBE47
     /tmp/cclLPOZ2.s:3281   .debug_loc:0000000000000332 .LLST14
     /tmp/cclLPOZ2.s:230    .text:0000000000000118 .LVL18
     /tmp/cclLPOZ2.s:239    .text:0000000000000124 .LVL19
     /tmp/cclLPOZ2.s:244    .text:0000000000000124 .LBB51
     /tmp/cclLPOZ2.s:254    .text:0000000000000130 .LBE51
     /tmp/cclLPOZ2.s:3288   .debug_loc:0000000000000355 .LLST15
     /tmp/cclLPOZ2.s:58     .text:000000000000002c .LFB24
     /tmp/cclLPOZ2.s:178    .text:00000000000000d4 .LFE24
     /tmp/cclLPOZ2.s:3299   .debug_loc:000000000000038b .LLST1
     /tmp/cclLPOZ2.s:118    .text:000000000000008c .LBB36
     /tmp/cclLPOZ2.s:3332   .debug_loc:0000000000000413 .LLST2
     /tmp/cclLPOZ2.s:3343   .debug_loc:0000000000000449 .LLST3
     /tmp/cclLPOZ2.s:3354   .debug_loc:000000000000047f .LLST4
     /tmp/cclLPOZ2.s:120    .text:000000000000008c .LBB38
     /tmp/cclLPOZ2.s:127    .text:0000000000000098 .LBE38
     /tmp/cclLPOZ2.s:3365   .debug_loc:00000000000004b5 .LLST5
GAS LISTING /tmp/cclLPOZ2.s 			page 20


     /tmp/cclLPOZ2.s:125    .text:0000000000000098 .LVL8
     /tmp/cclLPOZ2.s:128    .text:0000000000000098 .LBB40
     /tmp/cclLPOZ2.s:135    .text:00000000000000a0 .LBE40
     /tmp/cclLPOZ2.s:3373   .debug_loc:00000000000004d9 .LLST6
     /tmp/cclLPOZ2.s:3381   .debug_loc:00000000000004fd .LLST7
     /tmp/cclLPOZ2.s:3388   .debug_loc:0000000000000520 .LLST8
     /tmp/cclLPOZ2.s:151    .text:00000000000000b8 .LVL11
     /tmp/cclLPOZ2.s:3681   .debug_str:0000000000000654 .LASF131
     /tmp/cclLPOZ2.s:3547   .debug_str:00000000000002aa .LASF132
     /tmp/cclLPOZ2.s:3511   .debug_str:00000000000001a4 .LASF145
     /tmp/cclLPOZ2.s:10     .text:0000000000000000 .LFB22
     /tmp/cclLPOZ2.s:50     .text:000000000000002c .LFE22
     /tmp/cclLPOZ2.s:23     .text:000000000000000c .LBB34
     /tmp/cclLPOZ2.s:31     .text:0000000000000014 .LBE34
     /tmp/cclLPOZ2.s:3395   .debug_loc:0000000000000543 .LLST0
     /tmp/cclLPOZ2.s:458    .text:0000000000000208 .LVL42
     /tmp/cclLPOZ2.s:326    .text:0000000000000170 .LVL28
     /tmp/cclLPOZ2.s:347    .text:0000000000000194 .LVL29
     /tmp/cclLPOZ2.s:350    .text:0000000000000198 .LVL30
     /tmp/cclLPOZ2.s:371    .text:00000000000001b0 .LVL32
     /tmp/cclLPOZ2.s:417    .text:00000000000001f0 .LVL38
     /tmp/cclLPOZ2.s:432    .text:0000000000000200 .LVL40
     /tmp/cclLPOZ2.s:444    .text:0000000000000204 .LVL41
     /tmp/cclLPOZ2.s:413    .text:00000000000001e8 .LVL37
     /tmp/cclLPOZ2.s:366    .text:00000000000001ac .LVL31
     /tmp/cclLPOZ2.s:374    .text:00000000000001b4 .LVL33
     /tmp/cclLPOZ2.s:427    .text:00000000000001f8 .LVL39
     /tmp/cclLPOZ2.s:384    .text:00000000000001c4 .LVL34
     /tmp/cclLPOZ2.s:187    .text:00000000000000d4 .LVL15
     /tmp/cclLPOZ2.s:215    .text:0000000000000108 .LVL16
     /tmp/cclLPOZ2.s:269    .text:0000000000000144 .LVL22
     /tmp/cclLPOZ2.s:281    .text:0000000000000148 .LVL23
     /tmp/cclLPOZ2.s:284    .text:000000000000014c .LVL24
     /tmp/cclLPOZ2.s:304    .text:000000000000015c .LVL26
     /tmp/cclLPOZ2.s:310    .text:0000000000000168 .LVL27
     /tmp/cclLPOZ2.s:259    .text:0000000000000134 .LVL21
     /tmp/cclLPOZ2.s:225    .text:0000000000000110 .LVL17
     /tmp/cclLPOZ2.s:252    .text:0000000000000130 .LVL20
     /tmp/cclLPOZ2.s:293    .text:0000000000000150 .LVL25
     /tmp/cclLPOZ2.s:61     .text:000000000000002c .LVL3
     /tmp/cclLPOZ2.s:93     .text:0000000000000068 .LVL4
     /tmp/cclLPOZ2.s:104    .text:0000000000000074 .LVL5
     /tmp/cclLPOZ2.s:110    .text:0000000000000080 .LVL6
     /tmp/cclLPOZ2.s:163    .text:00000000000000cc .LVL13
     /tmp/cclLPOZ2.s:174    .text:00000000000000d0 .LVL14
     /tmp/cclLPOZ2.s:117    .text:000000000000008c .LVL7
     /tmp/cclLPOZ2.s:145    .text:00000000000000b0 .LVL10
     /tmp/cclLPOZ2.s:155    .text:00000000000000c0 .LVL12
     /tmp/cclLPOZ2.s:133    .text:00000000000000a0 .LVL9
     /tmp/cclLPOZ2.s:21     .text:000000000000000c .LVL1
     /tmp/cclLPOZ2.s:29     .text:0000000000000014 .LVL2
     /tmp/cclLPOZ2.s:503    .debug_info:0000000000000000 .Ldebug_info0
     /tmp/cclLPOZ2.s:147    .text:00000000000000b0 .LBE36
     /tmp/cclLPOZ2.s:157    .text:00000000000000c0 .LBB43
     /tmp/cclLPOZ2.s:171    .text:00000000000000cc .LBE43
     /tmp/cclLPOZ2.s:217    .text:0000000000000108 .LBB44
     /tmp/cclLPOZ2.s:241    .text:0000000000000124 .LBE44
GAS LISTING /tmp/cclLPOZ2.s 			page 21


     /tmp/cclLPOZ2.s:257    .text:0000000000000134 .LBB53
     /tmp/cclLPOZ2.s:278    .text:0000000000000144 .LBE53
     /tmp/cclLPOZ2.s:234    .text:0000000000000118 .LBE45
     /tmp/cclLPOZ2.s:260    .text:0000000000000134 .LBB50
     /tmp/cclLPOZ2.s:277    .text:0000000000000144 .LBE50
     /tmp/cclLPOZ2.s:364    .text:00000000000001ac .LBB55
     /tmp/cclLPOZ2.s:400    .text:00000000000001d8 .LBE55
     /tmp/cclLPOZ2.s:421    .text:00000000000001f0 .LBB62
     /tmp/cclLPOZ2.s:440    .text:0000000000000200 .LBE62
     /tmp/cclLPOZ2.s:394    .text:00000000000001cc .LBE56
     /tmp/cclLPOZ2.s:422    .text:00000000000001f0 .LBB61
     /tmp/cclLPOZ2.s:439    .text:0000000000000200 .LBE61
     /tmp/cclLPOZ2.s:486    .gcc_except_table:0000000000000000 .LLSDA28

UNDEFINED SYMBOLS
_ZN3TCB7runningE
_ZN15MemoryAllocator5allocEm
_ZN3TCB4waitEv
_ZN15MemoryAllocator5freeeEPv
_ZN3TCB6signalEv
__gxx_personality_v0
