GAS LISTING /tmp/ccx7aehZ.s 			page 1


   1              		.file	"Thread.cpp"
   2              		.option pic
   3              		.option norelax
   4              		.text
   5              	.Ltext0:
   6              		.section	.text._ZN6Thread3runEv,"axG",@progbits,_ZN6Thread3runEv,comdat
   7              		.align	2
   8              		.weak	_ZN6Thread3runEv
  10              	_ZN6Thread3runEv:
  11              	.LFB0:
  12              		.file 1 "src/../h/syscall_cpp.hpp"
   1:src/../h/syscall_cpp.hpp **** #ifndef _syscall_cpp
   2:src/../h/syscall_cpp.hpp **** #define _syscall_cpp
   3:src/../h/syscall_cpp.hpp **** 
   4:src/../h/syscall_cpp.hpp **** #include "syscall_c.h"
   5:src/../h/syscall_cpp.hpp **** 
   6:src/../h/syscall_cpp.hpp **** void *operator new(size_t);
   7:src/../h/syscall_cpp.hpp **** void operator delete(void*);
   8:src/../h/syscall_cpp.hpp **** 
   9:src/../h/syscall_cpp.hpp **** class Thread {
  10:src/../h/syscall_cpp.hpp **** public:
  11:src/../h/syscall_cpp.hpp ****     Thread (void (*body)(void*), void* arg);
  12:src/../h/syscall_cpp.hpp ****     virtual ~Thread ();
  13:src/../h/syscall_cpp.hpp ****     int start ();
  14:src/../h/syscall_cpp.hpp ****     static void dispatch ();
  15:src/../h/syscall_cpp.hpp ****     static int sleep (time_t);
  16:src/../h/syscall_cpp.hpp ****     static void wrapper(void*);
  17:src/../h/syscall_cpp.hpp **** protected:
  18:src/../h/syscall_cpp.hpp ****     Thread ();
  19:src/../h/syscall_cpp.hpp ****     virtual void run () {}
  13              		.loc 1 19 18
  14              		.cfi_startproc
  15              	.LVL0:
  16 0000 130101FF 		addi	sp,sp,-16
  17              		.cfi_def_cfa_offset 16
  18 0004 23348100 		sd	s0,8(sp)
  19              		.cfi_offset 8, -8
  20 0008 13040101 		addi	s0,sp,16
  21              		.cfi_def_cfa 8, 0
  22              		.loc 1 19 26 is_stmt 0
  23 000c 03348100 		ld	s0,8(sp)
  24              		.cfi_restore 8
  25              		.cfi_def_cfa 2, 16
  26 0010 13010101 		addi	sp,sp,16
  27              		.cfi_def_cfa_offset 0
  28 0014 67800000 		jr	ra
  29              		.cfi_endproc
  30              	.LFE0:
  32              		.text
  33              		.align	2
  34              		.globl	_ZN6ThreadD2Ev
  36              	_ZN6ThreadD2Ev:
  37              	.LFB10:
  38              		.file 2 "src/Thread.cpp"
   1:src/Thread.cpp **** #include "../h/syscall_cpp.hpp"
   2:src/Thread.cpp **** 
   3:src/Thread.cpp **** Thread::Thread() {
GAS LISTING /tmp/ccx7aehZ.s 			page 2


   4:src/Thread.cpp ****     thread_createNS(&myHandle, Thread::wrapper, this);
   5:src/Thread.cpp **** }
   6:src/Thread.cpp **** 
   7:src/Thread.cpp **** Thread::Thread(void (*body)(void *), void *arg) {
   8:src/Thread.cpp ****     thread_createNS(&myHandle, body, arg);
   9:src/Thread.cpp **** }
  10:src/Thread.cpp **** 
  11:src/Thread.cpp **** int Thread::start(){
  12:src/Thread.cpp ****     return thread_start(myHandle);
  13:src/Thread.cpp **** }
  14:src/Thread.cpp **** 
  15:src/Thread.cpp **** Thread::~Thread() {
  39              		.loc 2 15 1 is_stmt 1
  40              		.cfi_startproc
  41              	.LVL1:
  42 0000 130101FF 		addi	sp,sp,-16
  43              		.cfi_def_cfa_offset 16
  44 0004 23348100 		sd	s0,8(sp)
  45              		.cfi_offset 8, -8
  46 0008 13040101 		addi	s0,sp,16
  47              		.cfi_def_cfa 8, 0
  16:src/Thread.cpp **** }
  48              		.loc 2 16 1 is_stmt 0
  49 000c 03348100 		ld	s0,8(sp)
  50              		.cfi_restore 8
  51              		.cfi_def_cfa 2, 16
  52 0010 13010101 		addi	sp,sp,16
  53              		.cfi_def_cfa_offset 0
  54 0014 67800000 		jr	ra
  55              		.cfi_endproc
  56              	.LFE10:
  58              		.globl	_ZN6ThreadD1Ev
  59              		.set	_ZN6ThreadD1Ev,_ZN6ThreadD2Ev
  60              		.align	2
  61              		.globl	_ZN6Thread7wrapperEPv
  63              	_ZN6Thread7wrapperEPv:
  64              	.LFB15:
  17:src/Thread.cpp **** 
  18:src/Thread.cpp **** void Thread::dispatch()
  19:src/Thread.cpp **** {
  20:src/Thread.cpp ****     thread_dispatch();
  21:src/Thread.cpp **** }
  22:src/Thread.cpp **** 
  23:src/Thread.cpp **** int Thread::sleep(time_t time)
  24:src/Thread.cpp **** {
  25:src/Thread.cpp ****     return time_sleep(time);
  26:src/Thread.cpp **** }
  27:src/Thread.cpp **** 
  28:src/Thread.cpp **** void Thread::wrapper(void *thread)
  29:src/Thread.cpp **** {
  65              		.loc 2 29 1 is_stmt 1
  66              		.cfi_startproc
  67              	.LVL2:
  68 0018 130101FF 		addi	sp,sp,-16
  69              		.cfi_def_cfa_offset 16
  70 001c 23341100 		sd	ra,8(sp)
  71 0020 23308100 		sd	s0,0(sp)
GAS LISTING /tmp/ccx7aehZ.s 			page 3


  72              		.cfi_offset 1, -8
  73              		.cfi_offset 8, -16
  74 0024 13040101 		addi	s0,sp,16
  75              		.cfi_def_cfa 8, 0
  30:src/Thread.cpp ****     ((Thread*)thread)->run();
  76              		.loc 2 30 5
  77              		.loc 2 30 28 is_stmt 0
  78 0028 83370500 		ld	a5,0(a0)
  79 002c 83B70701 		ld	a5,16(a5)
  80              		.loc 2 30 27
  81 0030 E7800700 		jalr	a5
  82              	.LVL3:
  31:src/Thread.cpp **** }
  83              		.loc 2 31 1
  84 0034 83308100 		ld	ra,8(sp)
  85              		.cfi_restore 1
  86 0038 03340100 		ld	s0,0(sp)
  87              		.cfi_restore 8
  88              		.cfi_def_cfa 2, 16
  89 003c 13010101 		addi	sp,sp,16
  90              		.cfi_def_cfa_offset 0
  91 0040 67800000 		jr	ra
  92              		.cfi_endproc
  93              	.LFE15:
  95              		.align	2
  96              		.globl	_ZN6ThreadD0Ev
  98              	_ZN6ThreadD0Ev:
  99              	.LFB12:
  15:src/Thread.cpp **** }
 100              		.loc 2 15 1 is_stmt 1
 101              		.cfi_startproc
 102              	.LVL4:
 103 0044 130101FF 		addi	sp,sp,-16
 104              		.cfi_def_cfa_offset 16
 105 0048 23341100 		sd	ra,8(sp)
 106 004c 23308100 		sd	s0,0(sp)
 107              		.cfi_offset 1, -8
 108              		.cfi_offset 8, -16
 109 0050 13040101 		addi	s0,sp,16
 110              		.cfi_def_cfa 8, 0
  16:src/Thread.cpp **** 
 111              		.loc 2 16 1 is_stmt 0
 112 0054 97000000 		call	_ZdlPv@plt
 112      E7800000 
 113              	.LVL5:
 114 005c 83308100 		ld	ra,8(sp)
 115              		.cfi_restore 1
 116 0060 03340100 		ld	s0,0(sp)
 117              		.cfi_restore 8
 118              		.cfi_def_cfa 2, 16
 119 0064 13010101 		addi	sp,sp,16
 120              		.cfi_def_cfa_offset 0
 121 0068 67800000 		jr	ra
 122              		.cfi_endproc
 123              	.LFE12:
 125              		.align	2
 126              		.globl	_ZN6ThreadC2Ev
GAS LISTING /tmp/ccx7aehZ.s 			page 4


 128              	_ZN6ThreadC2Ev:
 129              	.LFB3:
   3:src/Thread.cpp ****     thread_createNS(&myHandle, Thread::wrapper, this);
 130              		.loc 2 3 1 is_stmt 1
 131              		.cfi_startproc
 132              	.LVL6:
 133 006c 130101FF 		addi	sp,sp,-16
 134              		.cfi_def_cfa_offset 16
 135 0070 23341100 		sd	ra,8(sp)
 136 0074 23308100 		sd	s0,0(sp)
 137              		.cfi_offset 1, -8
 138              		.cfi_offset 8, -16
 139 0078 13040101 		addi	s0,sp,16
 140              		.cfi_def_cfa 8, 0
 141              	.LBB2:
   3:src/Thread.cpp ****     thread_createNS(&myHandle, Thread::wrapper, this);
 142              		.loc 2 3 16 is_stmt 0
 143 007c 97070000 		lla	a5,_ZTV6Thread+16
 143      93870700 
 144 0084 2330F500 		sd	a5,0(a0)
   4:src/Thread.cpp **** }
 145              		.loc 2 4 5 is_stmt 1
   4:src/Thread.cpp **** }
 146              		.loc 2 4 20 is_stmt 0
 147 0088 13060500 		mv	a2,a0
 148 008c 97050000 		lla	a1,_ZN6Thread7wrapperEPv
 148      93850500 
 149 0094 13058500 		addi	a0,a0,8
 150              	.LVL7:
 151 0098 97000000 		call	_Z15thread_createNSPP3TCBPFvPvES2_@plt
 151      E7800000 
 152              	.LVL8:
 153              	.LBE2:
   5:src/Thread.cpp **** 
 154              		.loc 2 5 1
 155 00a0 83308100 		ld	ra,8(sp)
 156              		.cfi_restore 1
 157 00a4 03340100 		ld	s0,0(sp)
 158              		.cfi_restore 8
 159              		.cfi_def_cfa 2, 16
 160 00a8 13010101 		addi	sp,sp,16
 161              		.cfi_def_cfa_offset 0
 162 00ac 67800000 		jr	ra
 163              		.cfi_endproc
 164              	.LFE3:
 166              		.globl	_ZN6ThreadC1Ev
 167              		.set	_ZN6ThreadC1Ev,_ZN6ThreadC2Ev
 168              		.align	2
 169              		.globl	_ZN6ThreadC2EPFvPvES0_
 171              	_ZN6ThreadC2EPFvPvES0_:
 172              	.LFB6:
   7:src/Thread.cpp ****     thread_createNS(&myHandle, body, arg);
 173              		.loc 2 7 1 is_stmt 1
 174              		.cfi_startproc
 175              	.LVL9:
 176 00b0 130101FF 		addi	sp,sp,-16
 177              		.cfi_def_cfa_offset 16
GAS LISTING /tmp/ccx7aehZ.s 			page 5


 178 00b4 23341100 		sd	ra,8(sp)
 179 00b8 23308100 		sd	s0,0(sp)
 180              		.cfi_offset 1, -8
 181              		.cfi_offset 8, -16
 182 00bc 13040101 		addi	s0,sp,16
 183              		.cfi_def_cfa 8, 0
 184              	.LBB3:
   7:src/Thread.cpp ****     thread_createNS(&myHandle, body, arg);
 185              		.loc 2 7 47 is_stmt 0
 186 00c0 97070000 		lla	a5,_ZTV6Thread+16
 186      93870700 
 187 00c8 2330F500 		sd	a5,0(a0)
   8:src/Thread.cpp **** }
 188              		.loc 2 8 5 is_stmt 1
   8:src/Thread.cpp **** }
 189              		.loc 2 8 20 is_stmt 0
 190 00cc 13058500 		addi	a0,a0,8
 191              	.LVL10:
 192 00d0 97000000 		call	_Z15thread_createNSPP3TCBPFvPvES2_@plt
 192      E7800000 
 193              	.LVL11:
 194              	.LBE3:
   9:src/Thread.cpp **** 
 195              		.loc 2 9 1
 196 00d8 83308100 		ld	ra,8(sp)
 197              		.cfi_restore 1
 198 00dc 03340100 		ld	s0,0(sp)
 199              		.cfi_restore 8
 200              		.cfi_def_cfa 2, 16
 201 00e0 13010101 		addi	sp,sp,16
 202              		.cfi_def_cfa_offset 0
 203 00e4 67800000 		jr	ra
 204              		.cfi_endproc
 205              	.LFE6:
 207              		.globl	_ZN6ThreadC1EPFvPvES0_
 208              		.set	_ZN6ThreadC1EPFvPvES0_,_ZN6ThreadC2EPFvPvES0_
 209              		.align	2
 210              		.globl	_ZN6Thread5startEv
 212              	_ZN6Thread5startEv:
 213              	.LFB8:
  11:src/Thread.cpp ****     return thread_start(myHandle);
 214              		.loc 2 11 20 is_stmt 1
 215              		.cfi_startproc
 216              	.LVL12:
 217 00e8 130101FF 		addi	sp,sp,-16
 218              		.cfi_def_cfa_offset 16
 219 00ec 23341100 		sd	ra,8(sp)
 220 00f0 23308100 		sd	s0,0(sp)
 221              		.cfi_offset 1, -8
 222              		.cfi_offset 8, -16
 223 00f4 13040101 		addi	s0,sp,16
 224              		.cfi_def_cfa 8, 0
  12:src/Thread.cpp **** }
 225              		.loc 2 12 5
  12:src/Thread.cpp **** }
 226              		.loc 2 12 24 is_stmt 0
 227 00f8 03358500 		ld	a0,8(a0)
GAS LISTING /tmp/ccx7aehZ.s 			page 6


 228              	.LVL13:
 229 00fc 97000000 		call	_Z12thread_startP3TCB@plt
 229      E7800000 
 230              	.LVL14:
  13:src/Thread.cpp **** 
 231              		.loc 2 13 1
 232 0104 83308100 		ld	ra,8(sp)
 233              		.cfi_restore 1
 234 0108 03340100 		ld	s0,0(sp)
 235              		.cfi_restore 8
 236              		.cfi_def_cfa 2, 16
 237 010c 13010101 		addi	sp,sp,16
 238              		.cfi_def_cfa_offset 0
 239 0110 67800000 		jr	ra
 240              		.cfi_endproc
 241              	.LFE8:
 243              		.align	2
 244              		.globl	_ZN6Thread8dispatchEv
 246              	_ZN6Thread8dispatchEv:
 247              	.LFB13:
  19:src/Thread.cpp ****     thread_dispatch();
 248              		.loc 2 19 1 is_stmt 1
 249              		.cfi_startproc
 250 0114 130101FF 		addi	sp,sp,-16
 251              		.cfi_def_cfa_offset 16
 252 0118 23341100 		sd	ra,8(sp)
 253 011c 23308100 		sd	s0,0(sp)
 254              		.cfi_offset 1, -8
 255              		.cfi_offset 8, -16
 256 0120 13040101 		addi	s0,sp,16
 257              		.cfi_def_cfa 8, 0
  20:src/Thread.cpp **** }
 258              		.loc 2 20 5
  20:src/Thread.cpp **** }
 259              		.loc 2 20 20 is_stmt 0
 260 0124 97000000 		call	_Z15thread_dispatchv@plt
 260      E7800000 
 261              	.LVL15:
  21:src/Thread.cpp **** 
 262              		.loc 2 21 1
 263 012c 83308100 		ld	ra,8(sp)
 264              		.cfi_restore 1
 265 0130 03340100 		ld	s0,0(sp)
 266              		.cfi_restore 8
 267              		.cfi_def_cfa 2, 16
 268 0134 13010101 		addi	sp,sp,16
 269              		.cfi_def_cfa_offset 0
 270 0138 67800000 		jr	ra
 271              		.cfi_endproc
 272              	.LFE13:
 274              		.align	2
 275              		.globl	_ZN6Thread5sleepEm
 277              	_ZN6Thread5sleepEm:
 278              	.LFB14:
  24:src/Thread.cpp ****     return time_sleep(time);
 279              		.loc 2 24 1 is_stmt 1
 280              		.cfi_startproc
GAS LISTING /tmp/ccx7aehZ.s 			page 7


 281              	.LVL16:
 282 013c 130101FF 		addi	sp,sp,-16
 283              		.cfi_def_cfa_offset 16
 284 0140 23341100 		sd	ra,8(sp)
 285 0144 23308100 		sd	s0,0(sp)
 286              		.cfi_offset 1, -8
 287              		.cfi_offset 8, -16
 288 0148 13040101 		addi	s0,sp,16
 289              		.cfi_def_cfa 8, 0
  25:src/Thread.cpp **** }
 290              		.loc 2 25 5
  25:src/Thread.cpp **** }
 291              		.loc 2 25 22 is_stmt 0
 292 014c 97000000 		call	_Z10time_sleepm@plt
 292      E7800000 
 293              	.LVL17:
  26:src/Thread.cpp **** 
 294              		.loc 2 26 1
 295 0154 83308100 		ld	ra,8(sp)
 296              		.cfi_restore 1
 297 0158 03340100 		ld	s0,0(sp)
 298              		.cfi_restore 8
 299              		.cfi_def_cfa 2, 16
 300 015c 13010101 		addi	sp,sp,16
 301              		.cfi_def_cfa_offset 0
 302 0160 67800000 		jr	ra
 303              		.cfi_endproc
 304              	.LFE14:
 306              		.weak	_ZTV6Thread
 307              		.section	.data.rel.ro.local._ZTV6Thread,"awG",@progbits,_ZTV6Thread,comdat
 308              		.align	3
 311              	_ZTV6Thread:
 312 0000 00000000 		.dword	0
 312      00000000 
 313 0008 00000000 		.dword	0
 313      00000000 
 314 0010 00000000 		.dword	_ZN6ThreadD1Ev
 314      00000000 
 315 0018 00000000 		.dword	_ZN6ThreadD0Ev
 315      00000000 
 316 0020 00000000 		.dword	_ZN6Thread3runEv
 316      00000000 
 317              		.text
 318              	.Letext0:
 319              		.file 3 "src/../h/../lib/hw.h"
 320              		.file 4 "src/../h/syscall_c.h"
GAS LISTING /tmp/ccx7aehZ.s 			page 8

